00000000  668CD8            mov ax,ds
00000003  8ED0              mov ss,eax
00000005  BC00260000        mov esp,0x2600
0000000A  FA                cli
0000000B  66A100000900      mov ax,[0x90000]
00000011  66A3AC870000      mov [0x87ac],ax
00000017  E82E040000        call 0x44a ------------call:sys_init()
0000001C  EA230000001000    jmp 0x10:0x23

00000023  E8F7030000        call 0x41f ------------call:kernel_main()
00000028  FB                sti
00000029  EBFE              jmp short 0x29


0000002B  6690              xchg ax,ax
0000002D  6690              xchg ax,ax
0000002F  90                nop
00000030  8B542404          mov edx,[esp+0x4]
00000034  31C0              xor eax,eax
00000036  EC                in al,dx
00000037  EB00              jmp short 0x39
00000039  EB00              jmp short 0x3b
0000003B  C3                ret
0000003C  8B542404          mov edx,[esp+0x4]
00000040  8A442408          mov al,[esp+0x8]
00000044  EE                out dx,al
00000045  EB00              jmp short 0x47
00000047  EB00              jmp short 0x49
00000049  C3                ret
0000004A  8B542404          mov edx,[esp+0x4]
0000004E  31C0              xor eax,eax
00000050  66ED              in ax,dx
00000052  EB00              jmp short 0x54
00000054  EB00              jmp short 0x56
00000056  C3                ret
00000057  8B542404          mov edx,[esp+0x4]
0000005B  668B442408        mov ax,[esp+0x8]
00000060  66EF              out dx,ax
00000062  EB00              jmp short 0x64
00000064  EB00              jmp short 0x66
00000066  C3                ret
00000067  8B542404          mov edx,[esp+0x4]
0000006B  0F0112            lgdt [edx]
0000006E  C3                ret
0000006F  8B542404          mov edx,[esp+0x4]
00000073  0F011A            lidt [edx]
00000076  C3                ret
00000077  668B542404        mov dx,[esp+0x4]
0000007C  0F00D2            lldt dx
0000007F  C3                ret
00000080  668B542404        mov dx,[esp+0x4]
00000085  0F00DA            ltr dx
00000088  C3                ret
00000089  6690              xchg ax,ax
0000008B  6690              xchg ax,ax
0000008D  6690              xchg ax,ax
0000008F  90                nop

--------------------------------------------------------:restart:
00000090  BC80860000        mov esp,0x8680
00000095  0F00542448        lldt [esp+0x48]
0000009A  8D0548460000      lea eax,[dword 0x4648]
000000A0  A304460000        mov [0x4604],eax

--------------------------------------------------------:re_enter:
000000A5  FF0DA0210000      dec dword [dword 0x21a0]
000000AB  0FA9              pop gs
000000AD  0FA1              pop fs
000000AF  07                pop es
000000B0  1F                pop ds
000000B1  61                popa
000000B2  83C404            add esp,byte +0x4
000000B5  CF                iret

hwint_master(00)
000000B6  90                nop
000000B7  90                nop
000000B8  90                nop
000000B9  90                nop
000000BA  90                nop
000000BB  90                nop
000000BC  90                nop
000000BD  90                nop
000000BE  90                nop
000000BF  90                nop
000000C0  83EC04            sub esp,byte +0x4
000000C3  60                pusha
000000C4  1E                push ds
000000C5  06                push es
000000C6  0FA0              push fs
000000C8  0FA8              push gs
000000CA  65FE0500000000    inc byte [dword gs:0x0]
000000D1  FF05A0210000      inc dword [dword 0x21a0]
000000D7  833DA021000000    cmp dword [dword 0x21a0],byte +0x0
000000DE  75C5              jnz 0xa5
000000E0  B020              mov al,0x20
000000E2  E620              out 0x20,al
000000E4  EBAA              jmp short 0x90


000000E6  90                nop
000000E7  90                nop
000000E8  90                nop
000000E9  90                nop
000000EA  90                nop
000000EB  90                nop
000000EC  90                nop
000000ED  90                nop
000000EE  90                nop
000000EF  90                nop
000000F0  83EC04            sub esp,byte +0x4
000000F3  60                pusha
000000F4  1E                push ds
000000F5  06                push es
000000F6  0FA0              push fs
000000F8  0FA8              push gs
000000FA  65FE0500000000    inc byte [dword gs:0x0]
00000101  FF05A0210000      inc dword [dword 0x21a0]
00000107  833DA021000000    cmp dword [dword 0x21a0],byte +0x0
0000010E  7595              jnz 0xa5
00000110  B020              mov al,0x20
00000112  E620              out 0x20,al
00000114  E977FFFFFF        jmp 0x90
00000119  90                nop
0000011A  90                nop
0000011B  90                nop
0000011C  90                nop
0000011D  90                nop
0000011E  90                nop
0000011F  90                nop
00000120  83EC04            sub esp,byte +0x4
00000123  60                pusha
00000124  1E                push ds
00000125  06                push es
00000126  0FA0              push fs
00000128  0FA8              push gs
0000012A  65FE0500000000    inc byte [dword gs:0x0]
00000131  FF05A0210000      inc dword [dword 0x21a0]
00000137  833DA021000000    cmp dword [dword 0x21a0],byte +0x0
0000013E  0F8561FFFFFF      jnz near 0xa5
00000144  B020              mov al,0x20
00000146  E620              out 0x20,al
00000148  E943FFFFFF        jmp 0x90
0000014D  90                nop
0000014E  90                nop
0000014F  90                nop
00000150  83EC04            sub esp,byte +0x4
00000153  60                pusha
00000154  1E                push ds
00000155  06                push es
00000156  0FA0              push fs
00000158  0FA8              push gs
0000015A  65FE0500000000    inc byte [dword gs:0x0]
00000161  FF05A0210000      inc dword [dword 0x21a0]
00000167  833DA021000000    cmp dword [dword 0x21a0],byte +0x0
0000016E  0F8531FFFFFF      jnz near 0xa5
00000174  B020              mov al,0x20
00000176  E620              out 0x20,al
00000178  E913FFFFFF        jmp 0x90
0000017D  90                nop
0000017E  90                nop
0000017F  90                nop
00000180  83EC04            sub esp,byte +0x4
00000183  60                pusha
00000184  1E                push ds
00000185  06                push es
00000186  0FA0              push fs
00000188  0FA8              push gs
0000018A  65FE0500000000    inc byte [dword gs:0x0]
00000191  FF05A0210000      inc dword [dword 0x21a0]
00000197  833DA021000000    cmp dword [dword 0x21a0],byte +0x0
0000019E  0F8501FFFFFF      jnz near 0xa5
000001A4  B020              mov al,0x20
000001A6  E620              out 0x20,al
000001A8  E9E3FEFFFF        jmp 0x90
000001AD  90                nop
000001AE  90                nop
000001AF  90                nop
000001B0  83EC04            sub esp,byte +0x4
000001B3  60                pusha
000001B4  1E                push ds
000001B5  06                push es
000001B6  0FA0              push fs
000001B8  0FA8              push gs
000001BA  65FE0500000000    inc byte [dword gs:0x0]
000001C1  FF05A0210000      inc dword [dword 0x21a0]
000001C7  833DA021000000    cmp dword [dword 0x21a0],byte +0x0
000001CE  0F85D1FEFFFF      jnz near 0xa5
000001D4  B020              mov al,0x20
000001D6  E620              out 0x20,al
000001D8  E9B3FEFFFF        jmp 0x90
000001DD  90                nop
000001DE  90                nop
000001DF  90                nop
000001E0  83EC04            sub esp,byte +0x4
000001E3  60                pusha
000001E4  1E                push ds
000001E5  06                push es
000001E6  0FA0              push fs
000001E8  0FA8              push gs
000001EA  65FE0500000000    inc byte [dword gs:0x0]
000001F1  FF05A0210000      inc dword [dword 0x21a0]
000001F7  833DA021000000    cmp dword [dword 0x21a0],byte +0x0
000001FE  0F85A1FEFFFF      jnz near 0xa5
00000204  B020              mov al,0x20
00000206  E620              out 0x20,al
00000208  E983FEFFFF        jmp 0x90
0000020D  90                nop
0000020E  90                nop
0000020F  90                nop
00000210  83EC04            sub esp,byte +0x4
00000213  60                pusha
00000214  1E                push ds
00000215  06                push es
00000216  0FA0              push fs
00000218  0FA8              push gs
0000021A  65FE0500000000    inc byte [dword gs:0x0]
00000221  FF05A0210000      inc dword [dword 0x21a0]
00000227  833DA021000000    cmp dword [dword 0x21a0],byte +0x0
0000022E  0F8571FEFFFF      jnz near 0xa5
00000234  B020              mov al,0x20
00000236  E620              out 0x20,al
00000238  E953FEFFFF        jmp 0x90
0000023D  90                nop
0000023E  90                nop
0000023F  90                nop
00000240  60                pusha
00000241  1E                push ds
00000242  06                push es
00000243  0FA0              push fs
00000245  0FA8              push gs
00000247  0FA9              pop gs
00000249  0FA1              pop fs
0000024B  07                pop es
0000024C  1F                pop ds
0000024D  61                popa
0000024E  CF                iret
0000024F  90                nop
00000250  60                pusha
00000251  1E                push ds
00000252  06                push es
00000253  0FA0              push fs
00000255  0FA8              push gs
00000257  0FA9              pop gs
00000259  0FA1              pop fs
0000025B  07                pop es
0000025C  1F                pop ds
0000025D  61                popa
0000025E  CF                iret
0000025F  90                nop
00000260  60                pusha
00000261  1E                push ds
00000262  06                push es
00000263  0FA0              push fs
00000265  0FA8              push gs
00000267  0FA9              pop gs
00000269  0FA1              pop fs
0000026B  07                pop es
0000026C  1F                pop ds
0000026D  61                popa
0000026E  CF                iret
0000026F  90                nop
00000270  60                pusha
00000271  1E                push ds
00000272  06                push es
00000273  0FA0              push fs
00000275  0FA8              push gs
00000277  0FA9              pop gs
00000279  0FA1              pop fs
0000027B  07                pop es
0000027C  1F                pop ds
0000027D  61                popa
0000027E  CF                iret
0000027F  90                nop
00000280  60                pusha
00000281  1E                push ds
00000282  06                push es
00000283  0FA0              push fs
00000285  0FA8              push gs
00000287  0FA9              pop gs
00000289  0FA1              pop fs
0000028B  07                pop es
0000028C  1F                pop ds
0000028D  61                popa
0000028E  CF                iret
0000028F  90                nop
00000290  60                pusha
00000291  1E                push ds
00000292  06                push es
00000293  0FA0              push fs
00000295  0FA8              push gs
00000297  0FA9              pop gs
00000299  0FA1              pop fs
0000029B  07                pop es
0000029C  1F                pop ds
0000029D  61                popa
0000029E  CF                iret
0000029F  90                nop
000002A0  60                pusha
000002A1  1E                push ds
000002A2  06                push es
000002A3  0FA0              push fs
000002A5  0FA8              push gs
000002A7  0FA9              pop gs
000002A9  0FA1              pop fs
000002AB  07                pop es
000002AC  1F                pop ds
000002AD  61                popa
000002AE  CF                iret
000002AF  90                nop
000002B0  60                pusha
000002B1  1E                push ds
000002B2  06                push es
000002B3  0FA0              push fs
000002B5  0FA8              push gs
000002B7  0FA9              pop gs
000002B9  0FA1              pop fs
000002BB  07                pop es
000002BC  1F                pop ds
000002BD  61                popa
000002BE  CF                iret
000002BF  6AFF              push byte -0x1
000002C1  6A00              push byte +0x0
000002C3  EB5E              jmp short 0x323
000002C5  6AFF              push byte -0x1
000002C7  6A01              push byte +0x1
000002C9  EB58              jmp short 0x323
000002CB  6AFF              push byte -0x1
000002CD  6A02              push byte +0x2
000002CF  EB52              jmp short 0x323
000002D1  6AFF              push byte -0x1
000002D3  6A03              push byte +0x3
000002D5  EB4C              jmp short 0x323
000002D7  6AFF              push byte -0x1
000002D9  6A04              push byte +0x4
000002DB  EB46              jmp short 0x323
000002DD  6AFF              push byte -0x1
000002DF  6A05              push byte +0x5
000002E1  EB40              jmp short 0x323
000002E3  6AFF              push byte -0x1
000002E5  6A06              push byte +0x6
000002E7  EB3A              jmp short 0x323
000002E9  6AFF              push byte -0x1
000002EB  6A07              push byte +0x7
000002ED  EB34              jmp short 0x323
000002EF  6A08              push byte +0x8
000002F1  EB30              jmp short 0x323
000002F3  6AFF              push byte -0x1
000002F5  6A09              push byte +0x9
000002F7  EB2A              jmp short 0x323
000002F9  6A0A              push byte +0xa
000002FB  EB26              jmp short 0x323
000002FD  6A0B              push byte +0xb
000002FF  EB22              jmp short 0x323
00000301  6A0C              push byte +0xc
00000303  EB1E              jmp short 0x323
00000305  6A0D              push byte +0xd
00000307  EB1A              jmp short 0x323
00000309  6A0E              push byte +0xe
0000030B  EB16              jmp short 0x323
0000030D  6AFF              push byte -0x1
0000030F  6A10              push byte +0x10
00000311  EB10              jmp short 0x323
00000313  6A11              push byte +0x11
00000315  EB0C              jmp short 0x323
00000317  6AFF              push byte -0x1
00000319  6A12              push byte +0x12
0000031B  EB06              jmp short 0x323
0000031D  6AFF              push byte -0x1
0000031F  6A13              push byte +0x13
00000321  EB00              jmp short 0x323
00000323  E83A030000        call 0x662
00000328  83C408            add esp,byte +0x8
0000032B  F4                hlt
0000032C  CF                iret
0000032D  6690              xchg ax,ax
0000032F  90                nop

--------------------------------------------------------disp_str()
00000330  55                push ebp
00000331  89E5              mov ebp,esp
00000333  60                pusha
00000334  8B7508            mov esi,[ebp+0x8]
00000337  8B3DAC870000      mov edi,[dword 0x87ac]
0000033D  B40F              mov ah,0xf
0000033F  AC                lodsb
00000340  84C0              test al,al
00000342  7423              jz 0x367
00000344  3C0A              cmp al,0xa
00000346  7516              jnz 0x35e
00000348  50                push eax
00000349  89F8              mov eax,edi
0000034B  B3A0              mov bl,0xa0
0000034D  F6F3              div bl
0000034F  25FF000000        and eax,0xff
00000354  40                inc eax
00000355  B3A0              mov bl,0xa0
00000357  F6E3              mul bl
00000359  89C7              mov edi,eax
0000035B  58                pop eax
0000035C  EBE1              jmp short 0x33f
0000035E  65668907          mov [gs:edi],ax
00000362  83C702            add edi,byte +0x2
00000365  EBD8              jmp short 0x33f
00000367  893DAC870000      mov [dword 0x87ac],edi
0000036D  61                popa
0000036E  5D                pop ebp
0000036F  C3                ret
00000370  55                push ebp
00000371  89E5              mov ebp,esp
00000373  60                pusha
00000374  8B7508            mov esi,[ebp+0x8]
00000377  8B3DAC870000      mov edi,[dword 0x87ac]
0000037D  8A650C            mov ah,[ebp+0xc]
00000380  AC                lodsb
00000381  84C0              test al,al
00000383  7423              jz 0x3a8
00000385  3C0A              cmp al,0xa
00000387  7516              jnz 0x39f
00000389  50                push eax
0000038A  89F8              mov eax,edi
0000038C  B3A0              mov bl,0xa0
0000038E  F6F3              div bl
00000390  25FF000000        and eax,0xff
00000395  40                inc eax
00000396  B3A0              mov bl,0xa0
00000398  F6E3              mul bl
0000039A  89C7              mov edi,eax
0000039C  58                pop eax
0000039D  EBE1              jmp short 0x380
0000039F  65668907          mov [gs:edi],ax
000003A3  83C702            add edi,byte +0x2
000003A6  EBD8              jmp short 0x380
000003A8  893DAC870000      mov [dword 0x87ac],edi
000003AE  61                popa
000003AF  5D                pop ebp
000003B0  C3                ret
000003B1  6690              xchg ax,ax
000003B3  6690              xchg ax,ax
000003B5  6690              xchg ax,ax
000003B7  6690              xchg ax,ax
000003B9  6690              xchg ax,ax
000003BB  6690              xchg ax,ax
000003BD  6690              xchg ax,ax
000003BF  90                nop
000003C0  55                push ebp
000003C1  89E5              mov ebp,esp
000003C3  56                push esi
000003C4  57                push edi
000003C5  51                push ecx
000003C6  8B7D08            mov edi,[ebp+0x8]
000003C9  8B750C            mov esi,[ebp+0xc]
000003CC  8B4D10            mov ecx,[ebp+0x10]
000003CF  83F900            cmp ecx,byte +0x0
000003D2  740B              jz 0x3df
000003D4  3E8A06            mov al,[ds:esi]
000003D7  46                inc esi
000003D8  268807            mov [es:edi],al
000003DB  47                inc edi
000003DC  49                dec ecx
000003DD  EBF0              jmp short 0x3cf
000003DF  59                pop ecx
000003E0  5F                pop edi
000003E1  5E                pop esi
000003E2  89EC              mov esp,ebp
000003E4  5D                pop ebp
000003E5  C3                ret
000003E6  55                push ebp
000003E7  89E5              mov ebp,esp
000003E9  56                push esi
000003EA  57                push edi
000003EB  51                push ecx
000003EC  8B7D08            mov edi,[ebp+0x8]
000003EF  8B550C            mov edx,[ebp+0xc]
000003F2  8B4D10            mov ecx,[ebp+0x10]
000003F5  83F900            cmp ecx,byte +0x0
000003F8  7406              jz 0x400
000003FA  8817              mov [edi],dl
000003FC  47                inc edi
000003FD  49                dec ecx
000003FE  EBF5              jmp short 0x3f5
00000400  59                pop ecx
00000401  5F                pop edi
00000402  5E                pop esi
00000403  89EC              mov esp,ebp
00000405  5D                pop ebp
00000406  C3                ret
00000407  55                push ebp
00000408  89E5              mov ebp,esp
0000040A  8B750C            mov esi,[ebp+0xc]
0000040D  8B7D08            mov edi,[ebp+0x8]
00000410  8A06              mov al,[esi]
00000412  46                inc esi
00000413  8807              mov [edi],al
00000415  47                inc edi
00000416  3C00              cmp al,0x0
00000418  75F6              jnz 0x410
0000041A  8B4508            mov eax,[ebp+0x8]
0000041D  5D                pop ebp
0000041E  C3                ret

-------------------------------------------------------kernel_main()
0000041F  55                push ebp
00000420  89E5              mov ebp,esp
00000422  83EC08            sub esp,byte +0x8
00000425  83EC0C            sub esp,byte +0xc
00000428  6894100000        push dword 0x1094
0000042D  E8FEFEFFFF        call 0x330
00000432  83C410            add esp,byte +0x10
00000435  83EC0C            sub esp,byte +0xc
00000438  6A00              push byte +0x0
0000043A  E85D070000        call 0xb9c ---------------call:i8259_unmask()
0000043F  83C410            add esp,byte +0x10
00000442  E8B1090000        call 0xdf8 ---------------call:process_init()
00000447  90                nop
00000448  C9                leave
00000449  C3                ret

-------------------------------------------------------sys_init()
0000044A  55                push ebp
0000044B  89E5              mov ebp,esp
0000044D  83EC08            sub esp,byte +0x8
00000450  83EC0C            sub esp,byte +0xc
00000453  68A3100000        push dword 0x10a3
00000458  E8D3FEFFFF        call 0x330
0000045D  83C410            add esp,byte +0x10
00000460  E808000000        call 0x46d
00000465  E8E1000000        call 0x54b
0000046A  90                nop
0000046B  C9                leave
0000046C  C3                ret
0000046D  55                push ebp
0000046E  89E5              mov ebp,esp
00000470  83EC08            sub esp,byte +0x8
00000473  83EC04            sub esp,byte +0x4
00000476  6800200000        push dword 0x2000
0000047B  6A00              push byte +0x0
0000047D  6800260000        push dword 0x2600
00000482  E85FFFFFFF        call 0x3e6
00000487  83C410            add esp,byte +0x10
0000048A  83EC04            sub esp,byte +0x4
0000048D  6800080000        push dword 0x800
00000492  6A00              push byte +0x0
00000494  68C0870000        push dword 0x87c0
00000499  E848FFFFFF        call 0x3e6
0000049E  83C410            add esp,byte +0x10
000004A1  B800260000        mov eax,0x2600
000004A6  A3CA0F0200        mov [0x20fca],eax
000004AB  66C705C80F0200FF  mov word [dword 0x20fc8],0xffff
         -FF
000004B4  B8C0870000        mov eax,0x87c0
000004B9  A3C20F0200        mov [0x20fc2],eax
000004BE  66C705C00F0200FF  mov word [dword 0x20fc0],0x7ff
         -07
000004C7  83EC0C            sub esp,byte +0xc
000004CA  6A00              push byte +0x0
000004CC  E82D050000        call 0x9fe
000004D1  83C410            add esp,byte +0x10
000004D4  6A03              push byte +0x3
000004D6  6800800000        push dword 0x8000
000004DB  6800800B00        push dword 0xb8000
000004E0  6808260000        push dword 0x2608
000004E5  E870040000        call 0x95a
000004EA  83C410            add esp,byte +0x10
000004ED  83EC08            sub esp,byte +0x8
000004F0  6A00              push byte +0x0
000004F2  6A02              push byte +0x2
000004F4  E8D2040000        call 0x9cb
000004F9  83C410            add esp,byte +0x10
000004FC  83EC08            sub esp,byte +0x8
000004FF  6A00              push byte +0x0
00000501  6A03              push byte +0x3
00000503  E8A2040000        call 0x9aa
00000508  83C410            add esp,byte +0x10
0000050B  83EC08            sub esp,byte +0x8
0000050E  6A01              push byte +0x1
00000510  6A04              push byte +0x4
00000512  E8B4040000        call 0x9cb
00000517  83C410            add esp,byte +0x10
0000051A  83EC08            sub esp,byte +0x8
0000051D  6A01              push byte +0x1
0000051F  6A05              push byte +0x5
00000521  E884040000        call 0x9aa
00000526  83C410            add esp,byte +0x10
00000529  66A1C80F0200      mov ax,[0x20fc8]
0000052F  83C040            add eax,byte +0x40
00000532  66A3C80F0200      mov [0x20fc8],ax
00000538  83EC0C            sub esp,byte +0xc
0000053B  68C80F0200        push dword 0x20fc8
00000540  E822FBFFFF        call 0x67
00000545  83C410            add esp,byte +0x10
00000548  90                nop
00000549  C9                leave
0000054A  C3                ret
0000054B  55                push ebp
0000054C  89E5              mov ebp,esp
0000054E  83EC08            sub esp,byte +0x8
00000551  E8CD000000        call 0x623
00000556  E8DB000000        call 0x636
0000055B  83EC0C            sub esp,byte +0xc
0000055E  68C00F0200        push dword 0x20fc0
00000563  E807FBFFFF        call 0x6f
00000568  83C410            add esp,byte +0x10
0000056B  E878050000        call 0xae8
00000570  90                nop
00000571  C9                leave
00000572  C3                ret
00000573  55                push ebp
00000574  89E5              mov ebp,esp
00000576  83EC10            sub esp,byte +0x10
00000579  8B450C            mov eax,[ebp+0xc]
0000057C  8D14C500000000    lea edx,[eax*8+0x0]
00000583  8B4508            mov eax,[ebp+0x8]
00000586  01D0              add eax,edx
00000588  8945FC            mov [ebp-0x4],eax
0000058B  8B4510            mov eax,[ebp+0x10]
0000058E  8B55FC            mov edx,[ebp-0x4]
00000591  668902            mov [edx],ax
00000594  8B45FC            mov eax,[ebp-0x4]
00000597  66C740021000      mov word [eax+0x2],0x10
0000059D  8B4514            mov eax,[ebp+0x14]
000005A0  88C2              mov dl,al
000005A2  8B45FC            mov eax,[ebp-0x4]
000005A5  885005            mov [eax+0x5],dl
000005A8  8B4510            mov eax,[ebp+0x10]
000005AB  C1E810            shr eax,byte 0x10
000005AE  8B55FC            mov edx,[ebp-0x4]
000005B1  66894206          mov [edx+0x6],ax
000005B5  90                nop
000005B6  C9                leave
000005B7  C3                ret
000005B8  55                push ebp
000005B9  89E5              mov ebp,esp
000005BB  FF7510            push dword [ebp+0x10]
000005BE  FF750C            push dword [ebp+0xc]
000005C1  FF7508            push dword [ebp+0x8]
000005C4  68C0870000        push dword 0x87c0
000005C9  E8A5FFFFFF        call 0x573
000005CE  83C410            add esp,byte +0x10
000005D1  90                nop
000005D2  C9                leave
000005D3  C3                ret
000005D4  55                push ebp
000005D5  89E5              mov ebp,esp
000005D7  83EC10            sub esp,byte +0x10
000005DA  8B4508            mov eax,[ebp+0x8]
000005DD  8945FC            mov [ebp-0x4],eax
000005E0  EB35              jmp short 0x617
000005E2  8B45FC            mov eax,[ebp-0x4]
000005E5  668B4006          mov ax,[eax+0x6]
000005E9  0FB7C0            movzx eax,ax
000005EC  C1E005            shl eax,byte 0x5
000005EF  0C8E              or al,0x8e
000005F1  89C1              mov ecx,eax
000005F3  8B45FC            mov eax,[ebp-0x4]
000005F6  8B00              mov eax,[eax]
000005F8  89C2              mov edx,eax
000005FA  8B45FC            mov eax,[ebp-0x4]
000005FD  8B4004            mov eax,[eax+0x4]
00000600  0FB7C0            movzx eax,ax
00000603  51                push ecx
00000604  52                push edx
00000605  50                push eax
00000606  68C0870000        push dword 0x87c0
0000060B  E863FFFFFF        call 0x573
00000610  83C410            add esp,byte +0x10
00000613  8345FC08          add dword [ebp-0x4],byte +0x8
00000617  8B45FC            mov eax,[ebp-0x4]
0000061A  8B00              mov eax,[eax]
0000061C  85C0              test eax,eax
0000061E  75C2              jnz 0x5e2
00000620  90                nop
00000621  C9                leave
00000622  C3                ret
00000623  55                push ebp
00000624  89E5              mov ebp,esp
00000626  68A0200000        push dword 0x20a0
0000062B  E8A4FFFFFF        call 0x5d4
00000630  83C404            add esp,byte +0x4
00000633  90                nop
00000634  C9                leave
00000635  C3                ret
00000636  55                push ebp
00000637  89E5              mov ebp,esp
00000639  6800200000        push dword 0x2000
0000063E  E891FFFFFF        call 0x5d4
00000643  83C404            add esp,byte +0x4
00000646  90                nop
00000647  C9                leave
00000648  C3                ret
00000649  55                push ebp
0000064A  89E5              mov ebp,esp
0000064C  83EC08            sub esp,byte +0x8
0000064F  83EC0C            sub esp,byte +0xc
00000652  68C00F0200        push dword 0x20fc0
00000657  E813FAFFFF        call 0x6f
0000065C  83C410            add esp,byte +0x10
0000065F  90                nop
00000660  C9                leave
00000661  C3                ret
00000662  55                push ebp
00000663  89E5              mov ebp,esp
00000665  83EC18            sub esp,byte +0x18
00000668  C745F01F000000    mov dword [ebp-0x10],0x1f
0000066F  66C705AC87000000  mov word [dword 0x87ac],0x0
         -00
00000678  C745F400000000    mov dword [ebp-0xc],0x0
0000067F  EB1A              jmp short 0x69b
00000681  8B45F0            mov eax,[ebp-0x10]
00000684  0FB7C0            movzx eax,ax
00000687  83EC08            sub esp,byte +0x8
0000068A  50                push eax
0000068B  68B2120000        push dword 0x12b2
00000690  E8DBFCFFFF        call 0x370
00000695  83C410            add esp,byte +0x10
00000698  FF45F4            inc dword [ebp-0xc]
0000069B  817DF4CF070000    cmp dword [ebp-0xc],0x7cf
000006A2  7EDD              jng 0x681
000006A4  66C705AC87000000  mov word [dword 0x87ac],0x0
         -00
000006AD  8B45F0            mov eax,[ebp-0x10]
000006B0  0FB7C0            movzx eax,ax
000006B3  83EC08            sub esp,byte +0x8
000006B6  50                push eax
000006B7  68B4120000        push dword 0x12b4
000006BC  E8AFFCFFFF        call 0x370
000006C1  83C410            add esp,byte +0x10
000006C4  8B45F0            mov eax,[ebp-0x10]
000006C7  0FB7D0            movzx edx,ax
000006CA  8B4508            mov eax,[ebp+0x8]
000006CD  8B048540210000    mov eax,[eax*4+0x2140]
000006D4  83EC08            sub esp,byte +0x8
000006D7  52                push edx
000006D8  50                push eax
000006D9  E892FCFFFF        call 0x370
000006DE  83C410            add esp,byte +0x10
000006E1  83EC0C            sub esp,byte +0xc
000006E4  68C4120000        push dword 0x12c4
000006E9  E842FCFFFF        call 0x330
000006EE  83C410            add esp,byte +0x10
000006F1  8B45F0            mov eax,[ebp-0x10]
000006F4  0FB7C0            movzx eax,ax
000006F7  83EC08            sub esp,byte +0x8
000006FA  50                push eax
000006FB  68C7120000        push dword 0x12c7
00000700  E86BFCFFFF        call 0x370
00000705  83C410            add esp,byte +0x10
00000708  8B4518            mov eax,[ebp+0x18]
0000070B  83EC0C            sub esp,byte +0xc
0000070E  50                push eax
0000070F  E876060000        call 0xd8a
00000714  83C410            add esp,byte +0x10
00000717  8B45F0            mov eax,[ebp-0x10]
0000071A  0FB7C0            movzx eax,ax
0000071D  83EC08            sub esp,byte +0x8
00000720  50                push eax
00000721  68D1120000        push dword 0x12d1
00000726  E845FCFFFF        call 0x370
0000072B  83C410            add esp,byte +0x10
0000072E  8B4514            mov eax,[ebp+0x14]
00000731  83EC0C            sub esp,byte +0xc
00000734  50                push eax
00000735  E850060000        call 0xd8a
0000073A  83C410            add esp,byte +0x10
0000073D  8B45F0            mov eax,[ebp-0x10]
00000740  0FB7C0            movzx eax,ax
00000743  83EC08            sub esp,byte +0x8
00000746  50                push eax
00000747  68D7120000        push dword 0x12d7
0000074C  E81FFCFFFF        call 0x370
00000751  83C410            add esp,byte +0x10
00000754  8B4510            mov eax,[ebp+0x10]
00000757  83EC0C            sub esp,byte +0xc
0000075A  50                push eax
0000075B  E82A060000        call 0xd8a
00000760  83C410            add esp,byte +0x10
00000763  837D0CFF          cmp dword [ebp+0xc],byte -0x1
00000767  7426              jz 0x78f
00000769  8B45F0            mov eax,[ebp-0x10]
0000076C  0FB7C0            movzx eax,ax
0000076F  83EC08            sub esp,byte +0x8
00000772  50                push eax
00000773  68DE120000        push dword 0x12de
00000778  E8F3FBFFFF        call 0x370
0000077D  83C410            add esp,byte +0x10
00000780  8B450C            mov eax,[ebp+0xc]
00000783  83EC0C            sub esp,byte +0xc
00000786  50                push eax
00000787  E8FE050000        call 0xd8a
0000078C  83C410            add esp,byte +0x10
0000078F  90                nop
00000790  C9                leave
00000791  C3                ret
00000792  55                push ebp
00000793  89E5              mov ebp,esp
00000795  83EC08            sub esp,byte +0x8
00000798  837D0800          cmp dword [ebp+0x8],byte +0x0
0000079C  7507              jnz 0x7a5
0000079E  E84C000000        call 0x7ef
000007A3  EB0F              jmp short 0x7b4
000007A5  83EC0C            sub esp,byte +0xc
000007A8  FF7508            push dword [ebp+0x8]
000007AB  E807000000        call 0x7b7
000007B0  83C410            add esp,byte +0x10
000007B3  90                nop
000007B4  90                nop
000007B5  C9                leave
000007B6  C3                ret
000007B7  55                push ebp
000007B8  89E5              mov ebp,esp
000007BA  83EC08            sub esp,byte +0x8
000007BD  83EC0C            sub esp,byte +0xc
000007C0  68EC120000        push dword 0x12ec
000007C5  E866FBFFFF        call 0x330
000007CA  83C410            add esp,byte +0x10
000007CD  8B4508            mov eax,[ebp+0x8]
000007D0  83EC0C            sub esp,byte +0xc
000007D3  50                push eax
000007D4  E8B1050000        call 0xd8a
000007D9  83C410            add esp,byte +0x10
000007DC  83EC0C            sub esp,byte +0xc
000007DF  68FB120000        push dword 0x12fb
000007E4  E847FBFFFF        call 0x330
000007E9  83C410            add esp,byte +0x10
000007EC  90                nop
000007ED  C9                leave
000007EE  C3                ret
000007EF  55                push ebp
000007F0  89E5              mov ebp,esp
000007F2  83EC18            sub esp,byte +0x18
000007F5  66C745F60000      mov word [ebp-0xa],0x0
000007FB  83EC0C            sub esp,byte +0xc
000007FE  68FD120000        push dword 0x12fd
00000803  E828FBFFFF        call 0x330
00000808  83C410            add esp,byte +0x10
0000080B  0FB745F6          movzx eax,word [ebp-0xa]
0000080F  83EC0C            sub esp,byte +0xc
00000812  50                push eax
00000813  E872050000        call 0xd8a
00000818  83C410            add esp,byte +0x10
0000081B  83EC0C            sub esp,byte +0xc
0000081E  6800130000        push dword 0x1300
00000823  E808FBFFFF        call 0x330
00000828  83C410            add esp,byte +0x10
0000082B  668B45F6          mov ax,[ebp-0xa]
0000082F  40                inc eax
00000830  668945F6          mov [ebp-0xa],ax
00000834  83EC0C            sub esp,byte +0xc
00000837  6A04              push byte +0x4
00000839  E873050000        call 0xdb1
0000083E  83C410            add esp,byte +0x10
00000841  EBB8              jmp short 0x7fb
00000843  55                push ebp
00000844  89E5              mov ebp,esp
00000846  8B450C            mov eax,[ebp+0xc]
00000849  8B5508            mov edx,[ebp+0x8]
0000084C  66894202          mov [edx+0x2],ax
00000850  8B450C            mov eax,[ebp+0xc]
00000853  C1E810            shr eax,byte 0x10
00000856  88C2              mov dl,al
00000858  8B4508            mov eax,[ebp+0x8]
0000085B  885004            mov [eax+0x4],dl
0000085E  8B450C            mov eax,[ebp+0xc]
00000861  C1E818            shr eax,byte 0x18
00000864  88C2              mov dl,al
00000866  8B4508            mov eax,[ebp+0x8]
00000869  885007            mov [eax+0x7],dl
0000086C  FF4D10            dec dword [ebp+0x10]
0000086F  817D10FFFF0F00    cmp dword [ebp+0x10],0xfffff
00000876  761F              jna 0x897
00000878  8B4510            mov eax,[ebp+0x10]
0000087B  C1E80C            shr eax,byte 0xc
0000087E  8B5508            mov edx,[ebp+0x8]
00000881  668902            mov [edx],ax
00000884  8B4510            mov eax,[ebp+0x10]
00000887  C1E81C            shr eax,byte 0x1c
0000088A  83C880            or eax,byte -0x80
0000088D  88C2              mov dl,al
0000088F  8B4508            mov eax,[ebp+0x8]
00000892  885006            mov [eax+0x6],dl
00000895  EB17              jmp short 0x8ae
00000897  8B4510            mov eax,[ebp+0x10]
0000089A  8B5508            mov edx,[ebp+0x8]
0000089D  668902            mov [edx],ax
000008A0  8B4510            mov eax,[ebp+0x10]
000008A3  C1E810            shr eax,byte 0x10
000008A6  88C2              mov dl,al
000008A8  8B4508            mov eax,[ebp+0x8]
000008AB  885006            mov [eax+0x6],dl
000008AE  8B4508            mov eax,[ebp+0x8]
000008B1  8A4006            mov al,[eax+0x6]
000008B4  83C840            or eax,byte +0x40
000008B7  88C2              mov dl,al
000008B9  8B4508            mov eax,[ebp+0x8]
000008BC  885006            mov [eax+0x6],dl
000008BF  90                nop
000008C0  5D                pop ebp
000008C1  C3                ret
000008C2  55                push ebp
000008C3  89E5              mov ebp,esp
000008C5  FF7510            push dword [ebp+0x10]
000008C8  FF750C            push dword [ebp+0xc]
000008CB  FF7508            push dword [ebp+0x8]
000008CE  E870FFFFFF        call 0x843
000008D3  83C40C            add esp,byte +0xc
000008D6  8B4508            mov eax,[ebp+0x8]
000008D9  8A4005            mov al,[eax+0x5]
000008DC  8B5514            mov edx,[ebp+0x14]
000008DF  09C2              or edx,eax
000008E1  8B4508            mov eax,[ebp+0x8]
000008E4  885005            mov [eax+0x5],dl
000008E7  90                nop
000008E8  C9                leave
000008E9  C3                ret
000008EA  55                push ebp
000008EB  89E5              mov ebp,esp
000008ED  8B4508            mov eax,[ebp+0x8]
000008F0  C1E003            shl eax,byte 0x3
000008F3  0500260000        add eax,0x2600
000008F8  6A68              push byte +0x68
000008FA  FF750C            push dword [ebp+0xc]
000008FD  50                push eax
000008FE  E840FFFFFF        call 0x843
00000903  83C40C            add esp,byte +0xc
00000906  8B4508            mov eax,[ebp+0x8]
00000909  8A04C505260000    mov al,[eax*8+0x2605]
00000910  83C889            or eax,byte -0x77
00000913  88C2              mov dl,al
00000915  8B4508            mov eax,[ebp+0x8]
00000918  8814C505260000    mov [eax*8+0x2605],dl
0000091F  90                nop
00000920  C9                leave
00000921  C3                ret
00000922  55                push ebp
00000923  89E5              mov ebp,esp
00000925  8B4508            mov eax,[ebp+0x8]
00000928  C1E003            shl eax,byte 0x3
0000092B  0500260000        add eax,0x2600
00000930  6A68              push byte +0x68
00000932  FF750C            push dword [ebp+0xc]
00000935  50                push eax
00000936  E808FFFFFF        call 0x843
0000093B  83C40C            add esp,byte +0xc
0000093E  8B4508            mov eax,[ebp+0x8]
00000941  8A04C505260000    mov al,[eax*8+0x2605]
00000948  83C882            or eax,byte -0x7e
0000094B  88C2              mov dl,al
0000094D  8B4508            mov eax,[ebp+0x8]
00000950  8814C505260000    mov [eax*8+0x2605],dl
00000957  90                nop
00000958  C9                leave
00000959  C3                ret
0000095A  55                push ebp
0000095B  89E5              mov ebp,esp
0000095D  FF7510            push dword [ebp+0x10]
00000960  FF750C            push dword [ebp+0xc]
00000963  FF7508            push dword [ebp+0x8]
00000966  E8D8FEFFFF        call 0x843
0000096B  83C40C            add esp,byte +0xc
0000096E  8B4514            mov eax,[ebp+0x14]
00000971  C1E005            shl eax,byte 0x5
00000974  83C893            or eax,byte -0x6d
00000977  88C2              mov dl,al
00000979  8B4508            mov eax,[ebp+0x8]
0000097C  885005            mov [eax+0x5],dl
0000097F  90                nop
00000980  C9                leave
00000981  C3                ret
00000982  55                push ebp
00000983  89E5              mov ebp,esp
00000985  FF7510            push dword [ebp+0x10]
00000988  FF750C            push dword [ebp+0xc]
0000098B  FF7508            push dword [ebp+0x8]
0000098E  E8B0FEFFFF        call 0x843
00000993  83C40C            add esp,byte +0xc
00000996  8B4514            mov eax,[ebp+0x14]
00000999  C1E005            shl eax,byte 0x5
0000099C  83C89A            or eax,byte -0x66
0000099F  88C2              mov dl,al
000009A1  8B4508            mov eax,[ebp+0x8]
000009A4  885005            mov [eax+0x5],dl
000009A7  90                nop
000009A8  C9                leave
000009A9  C3                ret
000009AA  55                push ebp
000009AB  89E5              mov ebp,esp
000009AD  8B4508            mov eax,[ebp+0x8]
000009B0  C1E003            shl eax,byte 0x3
000009B3  0500260000        add eax,0x2600
000009B8  FF750C            push dword [ebp+0xc]
000009BB  6AFF              push byte -0x1
000009BD  6A00              push byte +0x0
000009BF  50                push eax
000009C0  E895FFFFFF        call 0x95a
000009C5  83C410            add esp,byte +0x10
000009C8  90                nop
000009C9  C9                leave
000009CA  C3                ret
000009CB  55                push ebp
000009CC  89E5              mov ebp,esp
000009CE  8B4508            mov eax,[ebp+0x8]
000009D1  C1E003            shl eax,byte 0x3
000009D4  0500260000        add eax,0x2600
000009D9  6AFF              push byte -0x1
000009DB  6A00              push byte +0x0
000009DD  50                push eax
000009DE  E860FEFFFF        call 0x843
000009E3  83C40C            add esp,byte +0xc
000009E6  8B450C            mov eax,[ebp+0xc]
000009E9  C1E005            shl eax,byte 0x5
000009EC  83C89A            or eax,byte -0x66
000009EF  88C2              mov dl,al
000009F1  8B4508            mov eax,[ebp+0x8]
000009F4  8814C505260000    mov [eax*8+0x2605],dl
000009FB  90                nop
000009FC  C9                leave
000009FD  C3                ret
000009FE  55                push ebp
000009FF  89E5              mov ebp,esp
00000A01  8B4508            mov eax,[ebp+0x8]
00000A04  C604C50526000000  mov byte [eax*8+0x2605],0x0
00000A0C  8B4508            mov eax,[ebp+0x8]
00000A0F  C604C50726000000  mov byte [eax*8+0x2607],0x0
00000A17  8B4508            mov eax,[ebp+0x8]
00000A1A  66C704C502260000  mov word [eax*8+0x2602],0x0
         -0000
00000A24  8B4508            mov eax,[ebp+0x8]
00000A27  C604C50426000000  mov byte [eax*8+0x2604],0x0
00000A2F  8B4508            mov eax,[ebp+0x8]
00000A32  C604C50626000000  mov byte [eax*8+0x2606],0x0
00000A3A  8B4508            mov eax,[ebp+0x8]
00000A3D  66C704C500260000  mov word [eax*8+0x2600],0x0
         -0000
00000A47  90                nop
00000A48  5D                pop ebp
00000A49  C3                ret
00000A4A  55                push ebp
00000A4B  89E5              mov ebp,esp
00000A4D  83EC18            sub esp,byte +0x18
00000A50  C745F400460000    mov dword [ebp-0xc],0x4600
00000A57  C745F006000000    mov dword [ebp-0x10],0x6
00000A5E  8B45F0            mov eax,[ebp-0x10]
00000A61  C1E003            shl eax,byte 0x3
00000A64  0500260000        add eax,0x2600
00000A69  8945EC            mov [ebp-0x14],eax
00000A6C  8B45F4            mov eax,[ebp-0xc]
00000A6F  6A00              push byte +0x0
00000A71  6A68              push byte +0x68
00000A73  50                push eax
00000A74  FF75EC            push dword [ebp-0x14]
00000A77  E8DEFEFFFF        call 0x95a
00000A7C  83C410            add esp,byte +0x10
00000A7F  8B45EC            mov eax,[ebp-0x14]
00000A82  C6400589          mov byte [eax+0x5],0x89
00000A86  83EC04            sub esp,byte +0x4
00000A89  6A68              push byte +0x68
00000A8B  6A00              push byte +0x0
00000A8D  FF75F4            push dword [ebp-0xc]
00000A90  E851F9FFFF        call 0x3e6
00000A95  83C410            add esp,byte +0x10
00000A98  8B45F4            mov eax,[ebp-0xc]
00000A9B  C7400818000000    mov dword [eax+0x8],0x18
00000AA2  8B45F4            mov eax,[ebp-0xc]
00000AA5  8B5008            mov edx,[eax+0x8]
00000AA8  8B45F4            mov eax,[ebp-0xc]
00000AAB  89505C            mov [eax+0x5c],edx
00000AAE  8B45F4            mov eax,[ebp-0xc]
00000AB1  8B505C            mov edx,[eax+0x5c]
00000AB4  8B45F4            mov eax,[ebp-0xc]
00000AB7  895058            mov [eax+0x58],edx
00000ABA  8B45F4            mov eax,[ebp-0xc]
00000ABD  8B5058            mov edx,[eax+0x58]
00000AC0  8B45F4            mov eax,[ebp-0xc]
00000AC3  895048            mov [eax+0x48],edx
00000AC6  8B45F4            mov eax,[ebp-0xc]
00000AC9  8B5048            mov edx,[eax+0x48]
00000ACC  8B45F4            mov eax,[ebp-0xc]
00000ACF  895054            mov [eax+0x54],edx
00000AD2  8B45F4            mov eax,[ebp-0xc]
00000AD5  C7404C10000000    mov dword [eax+0x4c],0x10
00000ADC  8B45F4            mov eax,[ebp-0xc]
00000ADF  66C740666800      mov word [eax+0x66],0x68
00000AE5  90                nop
00000AE6  C9                leave
00000AE7  C3                ret
00000AE8  55                push ebp
00000AE9  89E5              mov ebp,esp
00000AEB  83EC08            sub esp,byte +0x8
00000AEE  83EC08            sub esp,byte +0x8
00000AF1  6A11              push byte +0x11
00000AF3  6A20              push byte +0x20
00000AF5  E842F5FFFF        call 0x3c
00000AFA  83C410            add esp,byte +0x10
00000AFD  83EC08            sub esp,byte +0x8
00000B00  6A20              push byte +0x20
00000B02  6A21              push byte +0x21
00000B04  E833F5FFFF        call 0x3c
00000B09  83C410            add esp,byte +0x10
00000B0C  83EC08            sub esp,byte +0x8
00000B0F  6A04              push byte +0x4
00000B11  6A21              push byte +0x21
00000B13  E824F5FFFF        call 0x3c
00000B18  83C410            add esp,byte +0x10
00000B1B  83EC08            sub esp,byte +0x8
00000B1E  6A05              push byte +0x5
00000B20  6A21              push byte +0x21
00000B22  E815F5FFFF        call 0x3c
00000B27  83C410            add esp,byte +0x10
00000B2A  83EC08            sub esp,byte +0x8
00000B2D  6A11              push byte +0x11
00000B2F  68A0000000        push dword 0xa0
00000B34  E803F5FFFF        call 0x3c
00000B39  83C410            add esp,byte +0x10
00000B3C  83EC08            sub esp,byte +0x8
00000B3F  6A28              push byte +0x28
00000B41  68A1000000        push dword 0xa1
00000B46  E8F1F4FFFF        call 0x3c
00000B4B  83C410            add esp,byte +0x10
00000B4E  83EC08            sub esp,byte +0x8
00000B51  6A02              push byte +0x2
00000B53  68A1000000        push dword 0xa1
00000B58  E8DFF4FFFF        call 0x3c
00000B5D  83C410            add esp,byte +0x10
00000B60  83EC08            sub esp,byte +0x8
00000B63  6A01              push byte +0x1
00000B65  68A1000000        push dword 0xa1
00000B6A  E8CDF4FFFF        call 0x3c
00000B6F  83C410            add esp,byte +0x10
00000B72  83EC08            sub esp,byte +0x8
00000B75  68FB000000        push dword 0xfb
00000B7A  6A21              push byte +0x21
00000B7C  E8BBF4FFFF        call 0x3c
00000B81  83C410            add esp,byte +0x10
00000B84  83EC08            sub esp,byte +0x8
00000B87  68FF000000        push dword 0xff
00000B8C  68A1000000        push dword 0xa1
00000B91  E8A6F4FFFF        call 0x3c
00000B96  83C410            add esp,byte +0x10
00000B99  90                nop
00000B9A  C9                leave
00000B9B  C3                ret
00000B9C  55                push ebp
00000B9D  89E5              mov ebp,esp
00000B9F  53                push ebx
00000BA0  83EC14            sub esp,byte +0x14
00000BA3  837D0807          cmp dword [ebp+0x8],byte +0x7
00000BA7  7704              ja 0xbad
00000BA9  B021              mov al,0x21
00000BAB  EB02              jmp short 0xbaf
00000BAD  B0A1              mov al,0xa1
00000BAF  8845F7            mov [ebp-0x9],al
00000BB2  0FB645F7          movzx eax,byte [ebp-0x9]
00000BB6  83EC0C            sub esp,byte +0xc
00000BB9  50                push eax
00000BBA  E871F4FFFF        call 0x30
00000BBF  83C410            add esp,byte +0x10
00000BC2  88C2              mov dl,al
00000BC4  8B4508            mov eax,[ebp+0x8]
00000BC7  83E007            and eax,byte +0x7
00000BCA  BB01000000        mov ebx,0x1
00000BCF  88C1              mov cl,al
00000BD1  D3E3              shl ebx,cl
00000BD3  89D8              mov eax,ebx
00000BD5  F7D0              not eax
00000BD7  21D0              and eax,edx
00000BD9  0FB6D0            movzx edx,al
00000BDC  0FB645F7          movzx eax,byte [ebp-0x9]
00000BE0  83EC08            sub esp,byte +0x8
00000BE3  52                push edx
00000BE4  50                push eax
00000BE5  E852F4FFFF        call 0x3c
00000BEA  83C410            add esp,byte +0x10
00000BED  90                nop
00000BEE  8B5DFC            mov ebx,[ebp-0x4]
00000BF1  C9                leave
00000BF2  C3                ret
00000BF3  55                push ebp
00000BF4  89E5              mov ebp,esp
00000BF6  53                push ebx
00000BF7  83EC14            sub esp,byte +0x14
00000BFA  837D0807          cmp dword [ebp+0x8],byte +0x7
00000BFE  7704              ja 0xc04
00000C00  B021              mov al,0x21
00000C02  EB02              jmp short 0xc06
00000C04  B0A1              mov al,0xa1
00000C06  8845F7            mov [ebp-0x9],al
00000C09  0FB645F7          movzx eax,byte [ebp-0x9]
00000C0D  83EC0C            sub esp,byte +0xc
00000C10  50                push eax
00000C11  E81AF4FFFF        call 0x30
00000C16  83C410            add esp,byte +0x10
00000C19  88C2              mov dl,al
00000C1B  8B4508            mov eax,[ebp+0x8]
00000C1E  83E007            and eax,byte +0x7
00000C21  BB01000000        mov ebx,0x1
00000C26  88C1              mov cl,al
00000C28  D3E3              shl ebx,cl
00000C2A  89D8              mov eax,ebx
00000C2C  09D0              or eax,edx
00000C2E  0FB6D0            movzx edx,al
00000C31  0FB645F7          movzx eax,byte [ebp-0x9]
00000C35  83EC08            sub esp,byte +0x8
00000C38  52                push edx
00000C39  50                push eax
00000C3A  E8FDF3FFFF        call 0x3c
00000C3F  83C410            add esp,byte +0x10
00000C42  90                nop
00000C43  8B5DFC            mov ebx,[ebp-0x4]
00000C46  C9                leave
00000C47  C3                ret
00000C48  55                push ebp
00000C49  89E5              mov ebp,esp
00000C4B  83EC08            sub esp,byte +0x8
00000C4E  83EC08            sub esp,byte +0x8
00000C51  68FF000000        push dword 0xff
00000C56  68A1000000        push dword 0xa1
00000C5B  E8DCF3FFFF        call 0x3c
00000C60  83C410            add esp,byte +0x10
00000C63  83EC08            sub esp,byte +0x8
00000C66  68FF000000        push dword 0xff
00000C6B  6A21              push byte +0x21
00000C6D  E8CAF3FFFF        call 0x3c
00000C72  83C410            add esp,byte +0x10
00000C75  83EC0C            sub esp,byte +0xc
00000C78  6A21              push byte +0x21
00000C7A  E8B1F3FFFF        call 0x30
00000C7F  83C410            add esp,byte +0x10
00000C82  90                nop
00000C83  C9                leave
00000C84  C3                ret
00000C85  55                push ebp
00000C86  89E5              mov ebp,esp
00000C88  83EC08            sub esp,byte +0x8
00000C8B  837D0807          cmp dword [ebp+0x8],byte +0x7
00000C8F  7707              ja 0xc98
00000C91  E80A000000        call 0xca0
00000C96  EB05              jmp short 0xc9d
00000C98  E81B000000        call 0xcb8
00000C9D  90                nop
00000C9E  C9                leave
00000C9F  C3                ret
00000CA0  55                push ebp
00000CA1  89E5              mov ebp,esp
00000CA3  83EC08            sub esp,byte +0x8
00000CA6  83EC08            sub esp,byte +0x8
00000CA9  6A20              push byte +0x20
00000CAB  6A20              push byte +0x20
00000CAD  E88AF3FFFF        call 0x3c
00000CB2  83C410            add esp,byte +0x10
00000CB5  90                nop
00000CB6  C9                leave
00000CB7  C3                ret
00000CB8  55                push ebp
00000CB9  89E5              mov ebp,esp
00000CBB  83EC08            sub esp,byte +0x8
00000CBE  83EC08            sub esp,byte +0x8
00000CC1  6A20              push byte +0x20
00000CC3  6A20              push byte +0x20
00000CC5  E872F3FFFF        call 0x3c
00000CCA  83C410            add esp,byte +0x10
00000CCD  83EC08            sub esp,byte +0x8
00000CD0  6A20              push byte +0x20
00000CD2  68A0000000        push dword 0xa0
00000CD7  E860F3FFFF        call 0x3c
00000CDC  83C410            add esp,byte +0x10
00000CDF  90                nop
00000CE0  C9                leave
00000CE1  C3                ret
00000CE2  55                push ebp
00000CE3  89E5              mov ebp,esp
00000CE5  83EC10            sub esp,byte +0x10
00000CE8  8B4508            mov eax,[ebp+0x8]
00000CEB  8945FC            mov [ebp-0x4],eax
00000CEE  C745F000000000    mov dword [ebp-0x10],0x0
00000CF5  8B45FC            mov eax,[ebp-0x4]
00000CF8  8D5001            lea edx,[eax+0x1]
00000CFB  8955FC            mov [ebp-0x4],edx
00000CFE  C60030            mov byte [eax],0x30
00000D01  8B45FC            mov eax,[ebp-0x4]
00000D04  8D5001            lea edx,[eax+0x1]
00000D07  8955FC            mov [ebp-0x4],edx
00000D0A  C60078            mov byte [eax],0x78
00000D0D  837D0C00          cmp dword [ebp+0xc],byte +0x0
00000D11  750E              jnz 0xd21
00000D13  8B45FC            mov eax,[ebp-0x4]
00000D16  8D5001            lea edx,[eax+0x1]
00000D19  8955FC            mov [ebp-0x4],edx
00000D1C  C60030            mov byte [eax],0x30
00000D1F  EB5E              jmp short 0xd7f
00000D21  C745F41C000000    mov dword [ebp-0xc],0x1c
00000D28  EB4F              jmp short 0xd79
00000D2A  8B45F4            mov eax,[ebp-0xc]
00000D2D  8B550C            mov edx,[ebp+0xc]
00000D30  88C1              mov cl,al
00000D32  D3FA              sar edx,cl
00000D34  89D0              mov eax,edx
00000D36  83E00F            and eax,byte +0xf
00000D39  8845FB            mov [ebp-0x5],al
00000D3C  837DF000          cmp dword [ebp-0x10],byte +0x0
00000D40  7506              jnz 0xd48
00000D42  807DFB00          cmp byte [ebp-0x5],0x0
00000D46  7E2D              jng 0xd75
00000D48  C745F001000000    mov dword [ebp-0x10],0x1
00000D4F  8A45FB            mov al,[ebp-0x5]
00000D52  83C030            add eax,byte +0x30
00000D55  8845FB            mov [ebp-0x5],al
00000D58  807DFB39          cmp byte [ebp-0x5],0x39
00000D5C  7E09              jng 0xd67
00000D5E  8A45FB            mov al,[ebp-0x5]
00000D61  83C007            add eax,byte +0x7
00000D64  8845FB            mov [ebp-0x5],al
00000D67  8B45FC            mov eax,[ebp-0x4]
00000D6A  8D5001            lea edx,[eax+0x1]
00000D6D  8955FC            mov [ebp-0x4],edx
00000D70  8A55FB            mov dl,[ebp-0x5]
00000D73  8810              mov [eax],dl
00000D75  836DF404          sub dword [ebp-0xc],byte +0x4
00000D79  837DF400          cmp dword [ebp-0xc],byte +0x0
00000D7D  79AB              jns 0xd2a
00000D7F  8B45FC            mov eax,[ebp-0x4]
00000D82  C60000            mov byte [eax],0x0
00000D85  8B4508            mov eax,[ebp+0x8]
00000D88  C9                leave
00000D89  C3                ret
00000D8A  55                push ebp
00000D8B  89E5              mov ebp,esp
00000D8D  83EC18            sub esp,byte +0x18
00000D90  FF7508            push dword [ebp+0x8]
00000D93  8D45E8            lea eax,[ebp-0x18]
00000D96  50                push eax
00000D97  E846FFFFFF        call 0xce2
00000D9C  83C408            add esp,byte +0x8
00000D9F  83EC0C            sub esp,byte +0xc
00000DA2  8D45E8            lea eax,[ebp-0x18]
00000DA5  50                push eax
00000DA6  E885F5FFFF        call 0x330
00000DAB  83C410            add esp,byte +0x10
00000DAE  90                nop
00000DAF  C9                leave
00000DB0  C3                ret
00000DB1  55                push ebp
00000DB2  89E5              mov ebp,esp
00000DB4  83EC10            sub esp,byte +0x10
00000DB7  C745FC00000000    mov dword [ebp-0x4],0x0
00000DBE  EB2D              jmp short 0xded
00000DC0  C745F800000000    mov dword [ebp-0x8],0x0
00000DC7  EB18              jmp short 0xde1
00000DC9  C745F400000000    mov dword [ebp-0xc],0x0
00000DD0  EB03              jmp short 0xdd5
00000DD2  FF45F4            inc dword [ebp-0xc]
00000DD5  817DF4E7030000    cmp dword [ebp-0xc],0x3e7
00000DDC  7EF4              jng 0xdd2
00000DDE  FF45F8            inc dword [ebp-0x8]
00000DE1  817DF8E7030000    cmp dword [ebp-0x8],0x3e7
00000DE8  7EDF              jng 0xdc9
00000DEA  FF45FC            inc dword [ebp-0x4]
00000DED  8B45FC            mov eax,[ebp-0x4]
00000DF0  3B4508            cmp eax,[ebp+0x8]
00000DF3  7CCB              jl 0xdc0
00000DF5  90                nop
00000DF6  C9                leave
00000DF7  C3                ret

-------------------------------------------------------------process_init()
00000DF8  55                push ebp
00000DF9  89E5              mov ebp,esp
00000DFB  83EC18            sub esp,byte +0x18
00000DFE  C745F480860000    mov dword [ebp-0xc],0x8680
													----------6
00000E05  83EC0C            sub esp,byte +0xc
00000E08  6A64              push byte +0x64
00000E0A  E87BFFFFFF        call 0xd8a
00000E0F  83C410            add esp,byte +0x10
00000E12  83EC0C            sub esp,byte +0xc
00000E15  6804130000        push dword 0x1304
00000E1A  E811F5FFFF        call 0x330
00000E1F  83C410            add esp,byte +0x10
00000E22  8B45F4            mov eax,[ebp-0xc]
00000E25  83EC0C            sub esp,byte +0xc
00000E28  50                push eax
00000E29  E85CFFFFFF        call 0xd8a
00000E2E  83C410            add esp,byte +0x10
00000E31  83EC0C            sub esp,byte +0xc
00000E34  6804130000        push dword 0x1304
00000E39  E8F2F4FFFF        call 0x330
00000E3E  83C410            add esp,byte +0x10
00000E41  B880860000        mov eax,0x8680
00000E46  83EC0C            sub esp,byte +0xc
00000E49  50                push eax
00000E4A  E83BFFFFFF        call 0xd8a
00000E4F  83C410            add esp,byte +0x10
00000E52  83EC0C            sub esp,byte +0xc
00000E55  6804130000        push dword 0x1304
00000E5A  E8D1F4FFFF        call 0x330
													-----------
00000E5F  83C410            add esp,byte +0x10
00000E62  8B45F4            mov eax,[ebp-0xc]
00000E65  66C740483800      mov word [eax+0x48],0x38
00000E6B  B800460000        mov eax,0x4600
00000E70  83EC08            sub esp,byte +0x8
00000E73  50                push eax
00000E74  6A06              push byte +0x6
00000E76  E86FFAFFFF        call 0x8ea
00000E7B  83C410            add esp,byte +0x10
00000E7E  8B45F4            mov eax,[ebp-0xc]
00000E81  83C04C            add eax,byte +0x4c
00000E84  83EC08            sub esp,byte +0x8
00000E87  50                push eax
00000E88  6A07              push byte +0x7
00000E8A  E893FAFFFF        call 0x922
00000E8F  83C410            add esp,byte +0x10
00000E92  8B45F4            mov eax,[ebp-0xc]
00000E95  83C054            add eax,byte +0x54
00000E98  6898000000        push dword 0x98
00000E9D  6AFF              push byte -0x1
00000E9F  6A00              push byte +0x0
00000EA1  50                push eax
00000EA2  E81BFAFFFF        call 0x8c2
00000EA7  83C410            add esp,byte +0x10
00000EAA  8B45F4            mov eax,[ebp-0xc]
00000EAD  83C05C            add eax,byte +0x5c
00000EB0  6892000000        push dword 0x92
00000EB5  6AFF              push byte -0x1
00000EB7  6A00              push byte +0x0
00000EB9  50                push eax
00000EBA  E803FAFFFF        call 0x8c2
00000EBF  83C410            add esp,byte +0x10
00000EC2  8B45F4            mov eax,[ebp-0xc]
00000EC5  C740380C000000    mov dword [eax+0x38],0xc
00000ECC  8B45F4            mov eax,[ebp-0xc]
00000ECF  C70014000000      mov dword [eax],0x14
00000ED5  8B45F4            mov eax,[ebp-0xc]
00000ED8  8B10              mov edx,[eax]
00000EDA  8B45F4            mov eax,[ebp-0xc]
00000EDD  895044            mov [eax+0x44],edx
00000EE0  8B45F4            mov eax,[ebp-0xc]
00000EE3  8B5044            mov edx,[eax+0x44]
00000EE6  8B45F4            mov eax,[ebp-0xc]
00000EE9  895004            mov [eax+0x4],edx
00000EEC  8B45F4            mov eax,[ebp-0xc]
00000EEF  8B5004            mov edx,[eax+0x4]
00000EF2  8B45F4            mov eax,[ebp-0xc]
00000EF5  895008            mov [eax+0x8],edx
00000EF8  8B45F4            mov eax,[ebp-0xc]
00000EFB  8B5008            mov edx,[eax+0x8]
00000EFE  8B45F4            mov eax,[ebp-0xc]
00000F01  89500C            mov [eax+0xc],edx
00000F04  8B45F4            mov eax,[ebp-0xc]
00000F07  C7401000000000    mov dword [eax+0x10],0x0
00000F0E  8B45F4            mov eax,[ebp-0xc]
00000F11  8B5010            mov edx,[eax+0x10]
00000F14  8B45F4            mov eax,[ebp-0xc]
00000F17  895014            mov [eax+0x14],edx
00000F1A  8B45F4            mov eax,[ebp-0xc]
00000F1D  8B5014            mov edx,[eax+0x14]
00000F20  8B45F4            mov eax,[ebp-0xc]
00000F23  895024            mov [eax+0x24],edx
00000F26  8B45F4            mov eax,[ebp-0xc]
00000F29  8B5024            mov edx,[eax+0x24]
00000F2C  8B45F4            mov eax,[ebp-0xc]
00000F2F  895028            mov [eax+0x28],edx
00000F32  8B45F4            mov eax,[ebp-0xc]
00000F35  8B5028            mov edx,[eax+0x28]
00000F38  8B45F4            mov eax,[ebp-0xc]
00000F3B  895018            mov [eax+0x18],edx
00000F3E  8B45F4            mov eax,[ebp-0xc]
00000F41  8B5018            mov edx,[eax+0x18]
00000F44  8B45F4            mov eax,[ebp-0xc]
00000F47  89502C            mov [eax+0x2c],edx
00000F4A  B8C00F0200        mov eax,0x20fc0
00000F4F  89C2              mov edx,eax
00000F51  8B45F4            mov eax,[ebp-0xc]
00000F54  895040            mov [eax+0x40],edx
00000F57  BA9E0F0000        mov edx,0xf9e
00000F5C  8B45F4            mov eax,[ebp-0xc]
00000F5F  895034            mov [eax+0x34],edx
00000F62  8B45F4            mov eax,[ebp-0xc]
00000F65  C7403C02120000    mov dword [eax+0x3c],0x1202
00000F6C  C705084600001800  mov dword [dword 0x4608],0x18
         -0000
00000F76  B8A0A20000        mov eax,0xa2a0
00000F7B  A304460000        mov [0x4604],eax
00000F80  66C7056646000068  mov word [dword 0x4666],0x68
         -00
00000F89  83EC0C            sub esp,byte +0xc
00000F8C  6A30              push byte +0x30
00000F8E  E8EDF0FFFF        call 0x80
00000F93  83C410            add esp,byte +0x10
00000F96  E8F5F0FFFF        call 0x90 ---------------------call:restart()
00000F9B  90                nop
00000F9C  C9                leave
00000F9D  C3                ret

-------------------------------------------------------TestA()
00000F9E  55                push ebp
00000F9F  89E5              mov ebp,esp
00000FA1  83EC18            sub esp,byte +0x18
00000FA4  C745F400000000    mov dword [ebp-0xc],0x0
00000FAB  83EC0C            sub esp,byte +0xc
00000FAE  6806130000        push dword 0x1306
00000FB3  E878F3FFFF        call 0x330
00000FB8  83C410            add esp,byte +0x10
00000FBB  8B45F4            mov eax,[ebp-0xc]
00000FBE  8D5001            lea edx,[eax+0x1]
00000FC1  8955F4            mov [ebp-0xc],edx
00000FC4  83EC0C            sub esp,byte +0xc
00000FC7  50                push eax
00000FC8  E8BDFDFFFF        call 0xd8a
00000FCD  83C410            add esp,byte +0x10
00000FD0  83EC0C            sub esp,byte +0xc
00000FD3  6808130000        push dword 0x1308
00000FD8  E853F3FFFF        call 0x330
00000FDD  83C410            add esp,byte +0x10
00000FE0  83EC0C            sub esp,byte +0xc
00000FE3  6A01              push byte +0x1
00000FE5  E8C7FDFFFF        call 0xdb1
00000FEA  83C410            add esp,byte +0x10
00000FED  EBBC              jmp short 0xfab


00000FEF  55                push ebp
00000FF0  89E5              mov ebp,esp
00000FF2  83EC18            sub esp,byte +0x18
00000FF5  C745F400100000    mov dword [ebp-0xc],0x1000
00000FFC  83EC0C            sub esp,byte +0xc
00000FFF  680A130000        push dword 0x130a
00001004  E827F3FFFF        call 0x330
00001009  83C410            add esp,byte +0x10
0000100C  8B45F4            mov eax,[ebp-0xc]
0000100F  8D5001            lea edx,[eax+0x1]
00001012  8955F4            mov [ebp-0xc],edx
00001015  83EC0C            sub esp,byte +0xc
00001018  50                push eax
00001019  E86CFDFFFF        call 0xd8a
0000101E  83C410            add esp,byte +0x10
00001021  83EC0C            sub esp,byte +0xc
00001024  6808130000        push dword 0x1308
00001029  E802F3FFFF        call 0x330
0000102E  83C410            add esp,byte +0x10
00001031  83EC0C            sub esp,byte +0xc
00001034  6A01              push byte +0x1
00001036  E876FDFFFF        call 0xdb1
0000103B  83C410            add esp,byte +0x10
0000103E  EBBC              jmp short 0xffc


00001040  55                push ebp
00001041  89E5              mov ebp,esp
00001043  83EC18            sub esp,byte +0x18
00001046  C745F400200000    mov dword [ebp-0xc],0x2000
0000104D  83EC0C            sub esp,byte +0xc
00001050  680C130000        push dword 0x130c
00001055  E8D6F2FFFF        call 0x330
0000105A  83C410            add esp,byte +0x10
0000105D  8B45F4            mov eax,[ebp-0xc]
00001060  8D5001            lea edx,[eax+0x1]
00001063  8955F4            mov [ebp-0xc],edx
00001066  83EC0C            sub esp,byte +0xc
00001069  50                push eax
0000106A  E81BFDFFFF        call 0xd8a
0000106F  83C410            add esp,byte +0x10
00001072  83EC0C            sub esp,byte +0xc
00001075  6808130000        push dword 0x1308
0000107A  E8B1F2FFFF        call 0x330
0000107F  83C410            add esp,byte +0x10
00001082  83EC0C            sub esp,byte +0xc
00001085  6A01              push byte +0x1
00001087  E825FDFFFF        call 0xdb1
0000108C  83C410            add esp,byte +0x10
0000108F  EBBC              jmp short 0x104d


00001091  0000              add [eax],al
00001093  006E6F            add [esi+0x6f],ch
00001096  7720              ja 0x10b8
00001098  696E206B6D6169    imul ebp,[esi+0x20],dword 0x69616d6b
0000109F  6E                outsb
000010A0  2E0A00            or al,[cs:eax]
000010A3  696E6974207379    imul ebp,[esi+0x69],dword 0x79732074
000010AA  7374              jnc 0x1120
000010AC  656D              gs insd
000010AE  2E0A00            or al,[cs:eax]
000010B1  0000              add [eax],al
000010B3  0023              add [ebx],ah
000010B5  44                inc esp
000010B6  45                inc ebp
000010B7  20446976          and [ecx+ebp*2+0x76],al
000010BB  696465204572726F  imul esp,[ebp+0x20],dword 0x6f727245
000010C3  7200              jc 0x10c5
000010C5  23444220          and eax,[edx+eax*2+0x20]
000010C9  52                push edx
000010CA  45                inc ebp
000010CB  53                push ebx
000010CC  45                inc ebp
000010CD  52                push edx
000010CE  56                push esi
000010CF  45                inc ebp
000010D0  44                inc esp
000010D1  00E2              add dl,ah
000010D3  809420204E4D4920  adc byte [eax+0x494d4e20],0x20
000010DB  49                dec ecx
000010DC  6E                outsb
000010DD  7465              jz 0x1144
000010DF  7272              jc 0x1153
000010E1  7570              jnz 0x1153
000010E3  7400              jz 0x10e5
000010E5  234250            and eax,[edx+0x50]
000010E8  204272            and [edx+0x72],al
000010EB  6561              gs popa
000010ED  6B706F69          imul esi,[eax+0x6f],byte +0x69
000010F1  6E                outsb
000010F2  7400              jz 0x10f4
000010F4  234F46            and ecx,[edi+0x46]
000010F7  204F76            and [edi+0x76],cl
000010FA  657266            gs jc 0x1163
000010FD  6C                insb
000010FE  6F                outsd
000010FF  7700              ja 0x1101
00001101  234252            and eax,[edx+0x52]
00001104  20424F            and [edx+0x4f],al
00001107  55                push ebp
00001108  4E                dec esi
00001109  44                inc esp
0000110A  205261            and [edx+0x61],dl
0000110D  6E                outsb
0000110E  6765204578        and [gs:di+0x78],al
00001113  636565            arpl [ebp+0x65],sp
00001116  6465640000        add [fs:eax],al
0000111B  0023              add [ebx],ah
0000111D  55                push ebp
0000111E  44                inc esp
0000111F  20496E            and [ecx+0x6e],cl
00001122  7661              jna 0x1185
00001124  6C                insb
00001125  6964204F70636F64  imul esp,[eax+0x4f],dword 0x646f6370
0000112D  652028            and [gs:eax],ch
00001130  55                push ebp
00001131  6E                outsb
00001132  646566696E656420  imul bp,[gs:esi+0x65],word 0x2064
0000113A  4F                dec edi
0000113B  7063              jo 0x11a0
0000113D  6F                outsd
0000113E  64652900          sub [gs:eax],eax
00001142  0000              add [eax],al
00001144  234E4D            and ecx,[esi+0x4d]
00001147  20446576          and [ebp+0x76],al
0000114B  696365204E6F74    imul esp,[ebx+0x65],dword 0x746f4e20
00001152  204176            and [ecx+0x76],al
00001155  61                popa
00001156  696C61626C652028  imul ebp,[ecx+0x62],dword 0x2820656c
0000115E  4E                dec esi
0000115F  6F                outsd
00001160  204D61            and [ebp+0x61],cl
00001163  7468              jz 0x11cd
00001165  20436F            and [ebx+0x6f],al
00001168  7072              jo 0x11dc
0000116A  6F                outsd
0000116B  636573            arpl [ebp+0x73],sp
0000116E  736F              jnc 0x11df
00001170  7229              jc 0x119b
00001172  0023              add [ebx],ah
00001174  44                inc esp
00001175  46                inc esi
00001176  20446F75          and [edi+ebp*2+0x75],al
0000117A  626C6520          bound ebp,[ebp+0x20]
0000117E  46                inc esi
0000117F  61                popa
00001180  756C              jnz 0x11ee
00001182  7400              jz 0x1184
00001184  2020              and [eax],ah
00001186  2020              and [eax],ah
00001188  43                inc ebx
00001189  6F                outsd
0000118A  7072              jo 0x11fe
0000118C  6F                outsd
0000118D  636573            arpl [ebp+0x73],sp
00001190  736F              jnc 0x1201
00001192  7220              jc 0x11b4
00001194  53                push ebx
00001195  65676D            gs a16 insd
00001198  656E              gs outsb
0000119A  7420              jz 0x11bc
0000119C  4F                dec edi
0000119D  7665              jna 0x1204
0000119F  7272              jc 0x1213
000011A1  756E              jnz 0x1211
000011A3  2028              and [eax],ch
000011A5  7265              jc 0x120c
000011A7  7365              jnc 0x120e
000011A9  7276              jc 0x1221
000011AB  65642900          sub [fs:eax],eax
000011AF  23545320          and edx,[ebx+edx*2+0x20]
000011B3  49                dec ecx
000011B4  6E                outsb
000011B5  7661              jna 0x1218
000011B7  6C                insb
000011B8  6964205453530023  imul esp,[eax+0x54],dword 0x23005353
000011C0  4E                dec esi
000011C1  50                push eax
000011C2  205365            and [ebx+0x65],dl
000011C5  676D              a16 insd
000011C7  656E              gs outsb
000011C9  7420              jz 0x11eb
000011CB  4E                dec esi
000011CC  6F                outsd
000011CD  7420              jz 0x11ef
000011CF  50                push eax
000011D0  7265              jc 0x1237
000011D2  7365              jnc 0x1239
000011D4  6E                outsb
000011D5  7400              jz 0x11d7
000011D7  235353            and edx,[ebx+0x53]
000011DA  205374            and [ebx+0x74],dl
000011DD  61                popa
000011DE  636B2D            arpl [ebx+0x2d],bp
000011E1  53                push ebx
000011E2  65676D            gs a16 insd
000011E5  656E              gs outsb
000011E7  7420              jz 0x1209
000011E9  46                inc esi
000011EA  61                popa
000011EB  756C              jnz 0x1259
000011ED  7400              jz 0x11ef
000011EF  234750            and eax,[edi+0x50]
000011F2  204765            and [edi+0x65],al
000011F5  6E                outsb
000011F6  657261            gs jc 0x125a
000011F9  6C                insb
000011FA  205072            and [eax+0x72],dl
000011FD  6F                outsd
000011FE  7465              jz 0x1265
00001200  6374696F          arpl [ecx+ebp*2+0x6f],si
00001204  6E                outsb
00001205  0023              add [ebx],ah
00001207  50                push eax
00001208  46                inc esi
00001209  205061            and [eax+0x61],dl
0000120C  6765204661        and [gs:bp+0x61],al
00001211  756C              jnz 0x127f
00001213  7400              jz 0x1215
00001215  0000              add [eax],al
00001217  00E2              add dl,ah
00001219  8094202028496E74  adc byte [eax+0x6e492820],0x74
00001221  656C              gs insb
00001223  207265            and [edx+0x65],dh
00001226  7365              jnc 0x128d
00001228  7276              jc 0x12a0
0000122A  65642E20446F20    and [cs:edi+ebp*2+0x20],al
00001231  6E                outsb
00001232  6F                outsd
00001233  7420              jz 0x1255
00001235  7573              jnz 0x12aa
00001237  652E2900          sub [cs:eax],eax
0000123B  0023              add [ebx],ah
0000123D  4D                dec ebp
0000123E  46                inc esi
0000123F  207838            and [eax+0x38],bh
00001242  37                aaa
00001243  204650            and [esi+0x50],al
00001246  55                push ebp
00001247  20466C            and [esi+0x6c],al
0000124A  6F                outsd
0000124B  61                popa
0000124C  7469              jz 0x12b7
0000124E  6E                outsb
0000124F  672D506F696E      sub eax,0x6e696f50
00001255  7420              jz 0x1277
00001257  45                inc ebp
00001258  7272              jc 0x12cc
0000125A  6F                outsd
0000125B  7220              jc 0x127d
0000125D  284D61            sub [ebp+0x61],cl
00001260  7468              jz 0x12ca
00001262  204661            and [esi+0x61],al
00001265  756C              jnz 0x12d3
00001267  7429              jz 0x1292
00001269  0023              add [ebx],ah
0000126B  41                inc ecx
0000126C  43                inc ebx
0000126D  20416C            and [ecx+0x6c],al
00001270  69676E6D656E74    imul esp,[edi+0x6e],dword 0x746e656d
00001277  204368            and [ebx+0x68],al
0000127A  65636B00          arpl [gs:ebx+0x0],bp
0000127E  234D43            and ecx,[ebp+0x43]
00001281  204D61            and [ebp+0x61],cl
00001284  636869            arpl [eax+0x69],bp
00001287  6E                outsb
00001288  65204368          and [gs:ebx+0x68],al
0000128C  65636B00          arpl [gs:ebx+0x0],bp
00001290  235846            and ebx,[eax+0x46]
00001293  205349            and [ebx+0x49],dl
00001296  4D                dec ebp
00001297  44                inc esp
00001298  20466C            and [esi+0x6c],al
0000129B  6F                outsd
0000129C  61                popa
0000129D  7469              jz 0x1308
0000129F  6E                outsb
000012A0  672D506F696E      sub eax,0x6e696f50
000012A6  7420              jz 0x12c8
000012A8  45                inc ebp
000012A9  7863              js 0x130e
000012AB  657074            gs jo 0x1322
000012AE  696F6E00200045    imul ebp,[edi+0x6e],dword 0x45002000
000012B5  7863              js 0x131a
000012B7  657074            gs jo 0x132e
000012BA  696F6E21202D2D    imul ebp,[edi+0x6e],dword 0x2d2d2021
000012C1  3E2000            and [ds:eax],al
000012C4  0A0A              or cl,[edx]
000012C6  0020              add [eax],ah
000012C8  204546            and [ebp+0x46],al
000012CB  4C                dec esp
000012CC  41                inc ecx
000012CD  47                inc edi
000012CE  53                push ebx
000012CF  3A00              cmp al,[eax]
000012D1  2020              and [eax],ah
000012D3  43                inc ebx
000012D4  53                push ebx
000012D5  3A00              cmp al,[eax]
000012D7  2020              and [eax],ah
000012D9  45                inc ebp
000012DA  49                dec ecx
000012DB  50                push eax
000012DC  3A00              cmp al,[eax]
000012DE  2020              and [eax],ah
000012E0  45                inc ebp
000012E1  7272              jc 0x1355
000012E3  6F                outsd
000012E4  7220              jc 0x1306
000012E6  636F64            arpl [edi+0x64],bp
000012E9  653A00            cmp al,[gs:eax]
000012EC  7370              jnc 0x135e
000012EE  7572              jnz 0x1362
000012F0  696F75735F6972    imul ebp,[edi+0x75],dword 0x72695f73
000012F7  713A              jno 0x1333
000012F9  2000              and [eax],al
000012FB  0A00              or al,[eax]
000012FD  41                inc ecx
000012FE  2D003B2020        sub eax,0x20203b00
00001303  000A              add [edx],cl
00001305  004100            add [ecx+0x0],al
00001308  2E004200          add [cs:edx+0x0],al
0000130C  43                inc ebx
0000130D  0000              add [eax],al
0000130F  001400            add [eax+eax],dl
00001312  0000              add [eax],al
00001314  0000              add [eax],al
00001316  0000              add [eax],al
00001318  017A52            add [edx+0x52],edi
0000131B  0001              add [ecx],al
0000131D  7C08              jl 0x1327
0000131F  011B              add [ebx],ebx
00001321  0C04              or al,0x4
00001323  0488              add al,0x88
00001325  0100              add [eax],eax
00001327  001C00            add [eax+eax],bl
0000132A  0000              add [eax],al
0000132C  1C00              sbb al,0x0
0000132E  0000              add [eax],al
00001330  EF                out dx,eax
00001331  F0                lock
00001332  FF                db 0xff
00001333  FF2B              jmp far [ebx]
00001335  0000              add [eax],al
00001337  0000              add [eax],al
00001339  41                inc ecx
0000133A  0E                push cs
0000133B  088502420D05      or [ebp+0x50d4202],al
00001341  67C50C            lds ecx,[si]
00001344  0404              add al,0x4
00001346  0000              add [eax],al
00001348  1C00              sbb al,0x0
0000134A  0000              add [eax],al
0000134C  3C00              cmp al,0x0
0000134E  0000              add [eax],al
00001350  FA                cli
00001351  F0                lock
00001352  FF                db 0xff
00001353  FF23              jmp [ebx]
00001355  0000              add [eax],al
00001357  0000              add [eax],al
00001359  41                inc ecx
0000135A  0E                push cs
0000135B  088502420D05      or [ebp+0x50d4202],al
00001361  5F                pop edi
00001362  C50C04            lds ecx,[esp+eax]
00001365  0400              add al,0x0
00001367  001C00            add [eax+eax],bl
0000136A  0000              add [eax],al
0000136C  5C                pop esp
0000136D  0000              add [eax],al
0000136F  00FD              add ch,bh
00001371  F0                lock
00001372  FF                db 0xff
00001373  FF                db 0xff
00001374  DE00              fiadd word [eax]
00001376  0000              add [eax],al
00001378  00410E            add [ecx+0xe],al
0000137B  088502420D05      or [ebp+0x50d4202],al
00001381  02DA              add bl,dl
00001383  C50C04            lds ecx,[esp+eax]
00001386  0400              add al,0x0
00001388  1C00              sbb al,0x0
0000138A  0000              add [eax],al
0000138C  7C00              jl 0x138e
0000138E  0000              add [eax],al
00001390  BBF1FFFF28        mov ebx,0x28fffff1
00001395  0000              add [eax],al
00001397  0000              add [eax],al
00001399  41                inc ecx
0000139A  0E                push cs
0000139B  088502420D05      or [ebp+0x50d4202],al
000013A1  64C50C04          lds ecx,[fs:esp+eax]
000013A5  0400              add al,0x0
000013A7  001C00            add [eax+eax],bl
000013AA  0000              add [eax],al
000013AC  9C                pushf
000013AD  0000              add [eax],al
000013AF  00C3              add bl,al
000013B1  F1                int1
000013B2  FF                db 0xff
000013B3  FF4500            inc dword [ebp+0x0]
000013B6  0000              add [eax],al
000013B8  00410E            add [ecx+0xe],al
000013BB  088502420D05      or [ebp+0x50d4202],al
000013C1  0241C5            add al,[ecx-0x3b]
000013C4  0C04              or al,0x4
000013C6  0400              add al,0x0
000013C8  1C00              sbb al,0x0
000013CA  0000              add [eax],al
000013CC  BC000000E8        mov esp,0xe8000000
000013D1  F1                int1
000013D2  FF                db 0xff
000013D3  FF1C00            call far [eax+eax]
000013D6  0000              add [eax],al
000013D8  00410E            add [ecx+0xe],al
000013DB  088502420D05      or [ebp+0x50d4202],al
000013E1  58                pop eax
000013E2  C50C04            lds ecx,[esp+eax]
000013E5  0400              add al,0x0
000013E7  001C00            add [eax+eax],bl
000013EA  0000              add [eax],al
000013EC  DC00              fadd qword [eax]
000013EE  0000              add [eax],al
000013F0  E4F1              in al,0xf1
000013F2  FF                db 0xff
000013F3  FF4F00            dec dword [edi+0x0]
000013F6  0000              add [eax],al
000013F8  00410E            add [ecx+0xe],al
000013FB  088502420D05      or [ebp+0x50d4202],al
00001401  024BC5            add cl,[ebx-0x3b]
00001404  0C04              or al,0x4
00001406  0400              add al,0x0
00001408  1C00              sbb al,0x0
0000140A  0000              add [eax],al
0000140C  FC                cld
0000140D  0000              add [eax],al
0000140F  0013              add [ebx],dl
00001411  F2                repne
00001412  FF                db 0xff
00001413  FF13              call [ebx]
00001415  0000              add [eax],al
00001417  0000              add [eax],al
00001419  41                inc ecx
0000141A  0E                push cs
0000141B  088502420D05      or [ebp+0x50d4202],al
00001421  4F                dec edi
00001422  C50C04            lds ecx,[esp+eax]
00001425  0400              add al,0x0
00001427  001C00            add [eax+eax],bl
0000142A  0000              add [eax],al
0000142C  1C01              sbb al,0x1
0000142E  0000              add [eax],al
00001430  06                push es
00001431  F2                repne
00001432  FF                db 0xff
00001433  FF13              call [ebx]
00001435  0000              add [eax],al
00001437  0000              add [eax],al
00001439  41                inc ecx
0000143A  0E                push cs
0000143B  088502420D05      or [ebp+0x50d4202],al
00001441  4F                dec edi
00001442  C50C04            lds ecx,[esp+eax]
00001445  0400              add al,0x0
00001447  001C00            add [eax+eax],bl
0000144A  0000              add [eax],al
0000144C  3C01              cmp al,0x1
0000144E  0000              add [eax],al
00001450  F9                stc
00001451  F1                int1
00001452  FF                db 0xff
00001453  FF19              call far [ecx]
00001455  0000              add [eax],al
00001457  0000              add [eax],al
00001459  41                inc ecx
0000145A  0E                push cs
0000145B  088502420D05      or [ebp+0x50d4202],al
00001461  55                push ebp
00001462  C50C04            lds ecx,[esp+eax]
00001465  0400              add al,0x0
00001467  001C00            add [eax+eax],bl
0000146A  0000              add [eax],al
0000146C  5C                pop esp
0000146D  0100              add [eax],eax
0000146F  00F2              add dl,dh
00001471  F1                int1
00001472  FF                db 0xff
00001473  FF30              push dword [eax]
00001475  0100              add [eax],eax
00001477  0000              add [eax],al
00001479  41                inc ecx
0000147A  0E                push cs
0000147B  088502420D05      or [ebp+0x50d4202],al
00001481  032C01            add ebp,[ecx+eax]
00001484  C50C04            lds ecx,[esp+eax]
00001487  041C              add al,0x1c
00001489  0000              add [eax],al
0000148B  007C0100          add [ecx+eax+0x0],bh
0000148F  0002              add [edx],al
00001491  F3                rep
00001492  FF                db 0xff
00001493  FF2500000000      jmp [dword 0x0]
00001499  41                inc ecx
0000149A  0E                push cs
0000149B  088502420D05      or [ebp+0x50d4202],al
000014A1  61                popa
000014A2  C50C04            lds ecx,[esp+eax]
000014A5  0400              add al,0x0
000014A7  001C00            add [eax+eax],bl
000014AA  0000              add [eax],al
000014AC  9C                pushf
000014AD  0100              add [eax],eax
000014AF  0007              add [edi],al
000014B1  F3                rep
000014B2  FF                db 0xff
000014B3  FF                db 0xff
000014B4  3800              cmp [eax],al
000014B6  0000              add [eax],al
000014B8  00410E            add [ecx+0xe],al
000014BB  088502420D05      or [ebp+0x50d4202],al
000014C1  74C5              jz 0x1488
000014C3  0C04              or al,0x4
000014C5  0400              add al,0x0
000014C7  0018              add [eax],bl
000014C9  0000              add [eax],al
000014CB  00BC0100001FF3    add [ecx+eax-0xce10000],bh
000014D2  FF                db 0xff
000014D3  FF540000          call [eax+eax+0x0]
000014D7  0000              add [eax],al
000014D9  41                inc ecx
000014DA  0E                push cs
000014DB  088502420D05      or [ebp+0x50d4202],al
000014E1  0000              add [eax],al
000014E3  001C00            add [eax+eax],bl
000014E6  0000              add [eax],al
000014E8  D801              fadd dword [ecx]
000014EA  0000              add [eax],al
000014EC  57                push edi
000014ED  F3                rep
000014EE  FF                db 0xff
000014EF  FF                db 0xff
000014F0  7F00              jg 0x14f2
000014F2  0000              add [eax],al
000014F4  00410E            add [ecx+0xe],al
000014F7  088502420D05      or [ebp+0x50d4202],al
000014FD  027BC5            add bh,[ebx-0x3b]
00001500  0C04              or al,0x4
00001502  0400              add al,0x0
00001504  1C00              sbb al,0x0
00001506  0000              add [eax],al
00001508  F8                clc
00001509  0100              add [eax],eax
0000150B  00B6F3FFFF28      add [esi+0x28fffff3],dh
00001511  0000              add [eax],al
00001513  0000              add [eax],al
00001515  41                inc ecx
00001516  0E                push cs
00001517  088502420D05      or [ebp+0x50d4202],al
0000151D  64C50C04          lds ecx,[fs:esp+eax]
00001521  0400              add al,0x0
00001523  001C00            add [eax+eax],bl
00001526  0000              add [eax],al
00001528  1802              sbb [edx],al
0000152A  0000              add [eax],al
0000152C  BEF3FFFF38        mov esi,0x38fffff3
00001531  0000              add [eax],al
00001533  0000              add [eax],al
00001535  41                inc ecx
00001536  0E                push cs
00001537  088502420D05      or [ebp+0x50d4202],al
0000153D  74C5              jz 0x1504
0000153F  0C04              or al,0x4
00001541  0400              add al,0x0
00001543  001C00            add [eax+eax],bl
00001546  0000              add [eax],al
00001548  3802              cmp [edx],al
0000154A  0000              add [eax],al
0000154C  D6                salc
0000154D  F3                rep
0000154E  FF                db 0xff
0000154F  FF                db 0xff
00001550  3800              cmp [eax],al
00001552  0000              add [eax],al
00001554  00410E            add [ecx+0xe],al
00001557  088502420D05      or [ebp+0x50d4202],al
0000155D  74C5              jz 0x1524
0000155F  0C04              or al,0x4
00001561  0400              add al,0x0
00001563  001C00            add [eax+eax],bl
00001566  0000              add [eax],al
00001568  58                pop eax
00001569  0200              add al,[eax]
0000156B  00EE              add dh,ch
0000156D  F3                rep
0000156E  FF                db 0xff
0000156F  FF28              jmp far [eax]
00001571  0000              add [eax],al
00001573  0000              add [eax],al
00001575  41                inc ecx
00001576  0E                push cs
00001577  088502420D05      or [ebp+0x50d4202],al
0000157D  64C50C04          lds ecx,[fs:esp+eax]
00001581  0400              add al,0x0
00001583  001C00            add [eax+eax],bl
00001586  0000              add [eax],al
00001588  7802              js 0x158c
0000158A  0000              add [eax],al
0000158C  F6F3              div bl
0000158E  FF                db 0xff
0000158F  FF28              jmp far [eax]
00001591  0000              add [eax],al
00001593  0000              add [eax],al
00001595  41                inc ecx
00001596  0E                push cs
00001597  088502420D05      or [ebp+0x50d4202],al
0000159D  64C50C04          lds ecx,[fs:esp+eax]
000015A1  0400              add al,0x0
000015A3  001C00            add [eax+eax],bl
000015A6  0000              add [eax],al
000015A8  98                cwde
000015A9  0200              add al,[eax]
000015AB  00FE              add dh,bh
000015AD  F3                rep
000015AE  FF                db 0xff
000015AF  FF21              jmp [ecx]
000015B1  0000              add [eax],al
000015B3  0000              add [eax],al
000015B5  41                inc ecx
000015B6  0E                push cs
000015B7  088502420D05      or [ebp+0x50d4202],al
000015BD  5D                pop ebp
000015BE  C50C04            lds ecx,[esp+eax]
000015C1  0400              add al,0x0
000015C3  001C00            add [eax+eax],bl
000015C6  0000              add [eax],al
000015C8  B8020000FF        mov eax,0xff000002
000015CD  F3                rep
000015CE  FF                db 0xff
000015CF  FF33              push dword [ebx]
000015D1  0000              add [eax],al
000015D3  0000              add [eax],al
000015D5  41                inc ecx
000015D6  0E                push cs
000015D7  088502420D05      or [ebp+0x50d4202],al
000015DD  6F                outsd
000015DE  C50C04            lds ecx,[esp+eax]
000015E1  0400              add al,0x0
000015E3  001C00            add [eax+eax],bl
000015E6  0000              add [eax],al
000015E8  D802              fadd dword [edx]
000015EA  0000              add [eax],al
000015EC  12F4              adc dh,ah
000015EE  FF                db 0xff
000015EF  FF4C0000          dec dword [eax+eax+0x0]
000015F3  0000              add [eax],al
000015F5  41                inc ecx
000015F6  0E                push cs
000015F7  088502420D05      or [ebp+0x50d4202],al
000015FD  0248C5            add cl,[eax-0x3b]
00001600  0C04              or al,0x4
00001602  0400              add al,0x0
00001604  1C00              sbb al,0x0
00001606  0000              add [eax],al
00001608  F8                clc
00001609  0200              add al,[eax]
0000160B  003E              add [esi],bh
0000160D  F4                hlt
0000160E  FF                db 0xff
0000160F  FF9E00000000      call far [esi+0x0]
00001615  41                inc ecx
00001616  0E                push cs
00001617  088502420D05      or [ebp+0x50d4202],al
0000161D  029AC50C0404      add bl,[edx+0x4040cc5]
00001623  001C00            add [eax+eax],bl
00001626  0000              add [eax],al
00001628  1803              sbb [ebx],al
0000162A  0000              add [eax],al
0000162C  BCF4FFFFB4        mov esp,0xb4fffff4
00001631  0000              add [eax],al
00001633  0000              add [eax],al
00001635  41                inc ecx
00001636  0E                push cs
00001637  088502420D05      or [ebp+0x50d4202],al
0000163D  02B0C50C0404      add dh,[eax+0x4040cc5]
00001643  0020              add [eax],ah
00001645  0000              add [eax],al
00001647  0038              add [eax],bh
00001649  0300              add eax,[eax]
0000164B  0050F5            add [eax-0xb],dl
0000164E  FF                db 0xff
0000164F  FF5700            call [edi+0x0]
00001652  0000              add [eax],al
00001654  00410E            add [ecx+0xe],al
00001657  088502420D05      or [ebp+0x50d4202],al
0000165D  44                inc esp
0000165E  830302            add dword [ebx],byte +0x2
00001661  4F                dec edi
00001662  C5                db 0xc5
00001663  C3                ret
00001664  0C04              or al,0x4
00001666  0400              add al,0x0
00001668  2000              and [eax],al
0000166A  0000              add [eax],al
0000166C  5C                pop esp
0000166D  0300              add eax,[eax]
0000166F  0083F5FFFF55      add [ebx+0x55fffff5],al
00001675  0000              add [eax],al
00001677  0000              add [eax],al
00001679  41                inc ecx
0000167A  0E                push cs
0000167B  088502420D05      or [ebp+0x50d4202],al
00001681  44                inc esp
00001682  830302            add dword [ebx],byte +0x2
00001685  4D                dec ebp
00001686  C5                db 0xc5
00001687  C3                ret
00001688  0C04              or al,0x4
0000168A  0400              add al,0x0
0000168C  1C00              sbb al,0x0
0000168E  0000              add [eax],al
00001690  800300            add byte [ebx],0x0
00001693  00B4F5FFFF3D00    add [ebp+esi*8+0x3dffff],dh
0000169A  0000              add [eax],al
0000169C  00410E            add [ecx+0xe],al
0000169F  088502420D05      or [ebp+0x50d4202],al
000016A5  79C5              jns 0x166c
000016A7  0C04              or al,0x4
000016A9  0400              add al,0x0
000016AB  001C00            add [eax+eax],bl
000016AE  0000              add [eax],al
000016B0  A0030000D1        mov al,[0xd1000003]
000016B5  F5                cmc
000016B6  FF                db 0xff
000016B7  FF1B              call far [ebx]
000016B9  0000              add [eax],al
000016BB  0000              add [eax],al
000016BD  41                inc ecx
000016BE  0E                push cs
000016BF  088502420D05      or [ebp+0x50d4202],al
000016C5  57                push edi
000016C6  C50C04            lds ecx,[esp+eax]
000016C9  0400              add al,0x0
000016CB  001C00            add [eax+eax],bl
000016CE  0000              add [eax],al
000016D0  C00300            rol byte [ebx],byte 0x0
000016D3  00CC              add ah,cl
000016D5  F5                cmc
000016D6  FF                db 0xff
000016D7  FF18              call far [eax]
000016D9  0000              add [eax],al
000016DB  0000              add [eax],al
000016DD  41                inc ecx
000016DE  0E                push cs
000016DF  088502420D05      or [ebp+0x50d4202],al
000016E5  54                push esp
000016E6  C50C04            lds ecx,[esp+eax]
000016E9  0400              add al,0x0
000016EB  001C00            add [eax+eax],bl
000016EE  0000              add [eax],al
000016F0  E003              loopne 0x16f5
000016F2  0000              add [eax],al
000016F4  C4                db 0xc4
000016F5  F5                cmc
000016F6  FF                db 0xff
000016F7  FF2A              jmp far [edx]
000016F9  0000              add [eax],al
000016FB  0000              add [eax],al
000016FD  41                inc ecx
000016FE  0E                push cs
000016FF  088502420D05      or [ebp+0x50d4202],al
00001705  66C50C04          lds cx,[esp+eax]
00001709  0400              add al,0x0
0000170B  001C00            add [eax+eax],bl
0000170E  0000              add [eax],al
00001710  000400            add [eax+eax],al
00001713  00CE              add dh,cl
00001715  F5                cmc
00001716  FF                db 0xff
00001717  FFA800000000      jmp far [eax+0x0]
0000171D  41                inc ecx
0000171E  0E                push cs
0000171F  088502420D05      or [ebp+0x50d4202],al
00001725  02A4C50C040400    add ah,[ebp+eax*8+0x4040c]
0000172C  1C00              sbb al,0x0
0000172E  0000              add [eax],al
00001730  200400            and [eax+eax],al
00001733  0056F6            add [esi-0xa],dl
00001736  FF                db 0xff
00001737  FF27              jmp [edi]
00001739  0000              add [eax],al
0000173B  0000              add [eax],al
0000173D  41                inc ecx
0000173E  0E                push cs
0000173F  088502420D05      or [ebp+0x50d4202],al
00001745  63C5              arpl bp,ax
00001747  0C04              or al,0x4
00001749  0400              add al,0x0
0000174B  001C00            add [eax+eax],bl
0000174E  0000              add [eax],al
00001750  40                inc eax
00001751  0400              add al,0x0
00001753  005DF6            add [ebp-0xa],bl
00001756  FF                db 0xff
00001757  FF4700            inc dword [edi+0x0]
0000175A  0000              add [eax],al
0000175C  00410E            add [ecx+0xe],al
0000175F  088502420D05      or [ebp+0x50d4202],al
00001765  0243C5            add al,[ebx-0x3b]
00001768  0C04              or al,0x4
0000176A  0400              add al,0x0
0000176C  1C00              sbb al,0x0
0000176E  0000              add [eax],al
00001770  60                pusha
00001771  0400              add al,0x0
00001773  0084F6FFFFA601    add [esi+esi*8+0x1a6ffff],al
0000177A  0000              add [eax],al
0000177C  00410E            add [ecx+0xe],al
0000177F  088502420D05      or [ebp+0x50d4202],al
00001785  03A201C50C04      add esp,[edx+0x40cc501]
0000178B  0418              add al,0x18
0000178D  0000              add [eax],al
0000178F  00800400000A      add [eax+0xa000004],al
00001795  F8                clc
00001796  FF                db 0xff
00001797  FF5100            call [ecx+0x0]
0000179A  0000              add [eax],al
0000179C  00410E            add [ecx+0xe],al
0000179F  088502420D05      or [ebp+0x50d4202],al
000017A5  0000              add [eax],al
000017A7  0018              add [eax],bl
000017A9  0000              add [eax],al
000017AB  009C0400003FF8    add [esp+eax-0x7c10000],bl
000017B2  FF                db 0xff
000017B3  FF5100            call [ecx+0x0]
000017B6  0000              add [eax],al
000017B8  00410E            add [ecx+0xe],al
000017BB  088502420D05      or [ebp+0x50d4202],al
000017C1  0000              add [eax],al
000017C3  0018              add [eax],bl
000017C5  0000              add [eax],al
000017C7  00B804000074      add [eax+0x74000004],bh
000017CD  F8                clc
000017CE  FF                db 0xff
000017CF  FF5100            call [ecx+0x0]
000017D2  0000              add [eax],al
000017D4  00410E            add [ecx+0xe],al
000017D7  088502420D05      or [ebp+0x50d4202],al
000017DD  0000              add [eax],al
000017DF  0000              add [eax],al
000017E1  0000              add [eax],al
000017E3  0000              add [eax],al
000017E5  0000              add [eax],al
000017E7  0000              add [eax],al
000017E9  0000              add [eax],al
000017EB  0000              add [eax],al
000017ED  0000              add [eax],al
000017EF  0000              add [eax],al
000017F1  0000              add [eax],al
000017F3  0000              add [eax],al
000017F5  0000              add [eax],al
000017F7  0000              add [eax],al
000017F9  0000              add [eax],al
000017FB  0000              add [eax],al
000017FD  0000              add [eax],al
000017FF  0000              add [eax],al
00001801  0000              add [eax],al
00001803  0000              add [eax],al
00001805  0000              add [eax],al
00001807  0000              add [eax],al
00001809  0000              add [eax],al
0000180B  0000              add [eax],al
0000180D  0000              add [eax],al
0000180F  0000              add [eax],al
00001811  0000              add [eax],al
00001813  0000              add [eax],al
00001815  0000              add [eax],al
00001817  0000              add [eax],al
00001819  0000              add [eax],al
0000181B  0000              add [eax],al
0000181D  0000              add [eax],al
0000181F  0000              add [eax],al
00001821  0000              add [eax],al
00001823  0000              add [eax],al
00001825  0000              add [eax],al
00001827  0000              add [eax],al
00001829  0000              add [eax],al
0000182B  0000              add [eax],al
0000182D  0000              add [eax],al
0000182F  0000              add [eax],al
00001831  0000              add [eax],al
00001833  0000              add [eax],al
00001835  0000              add [eax],al
00001837  0000              add [eax],al
00001839  0000              add [eax],al
0000183B  0000              add [eax],al
0000183D  0000              add [eax],al
0000183F  0000              add [eax],al
00001841  0000              add [eax],al
00001843  0000              add [eax],al
00001845  0000              add [eax],al
00001847  0000              add [eax],al
00001849  0000              add [eax],al
0000184B  0000              add [eax],al
0000184D  0000              add [eax],al
0000184F  0000              add [eax],al
00001851  0000              add [eax],al
00001853  0000              add [eax],al
00001855  0000              add [eax],al
00001857  0000              add [eax],al
00001859  0000              add [eax],al
0000185B  0000              add [eax],al
0000185D  0000              add [eax],al
0000185F  0000              add [eax],al
00001861  0000              add [eax],al
00001863  0000              add [eax],al
00001865  0000              add [eax],al
00001867  0000              add [eax],al
00001869  0000              add [eax],al
0000186B  0000              add [eax],al
0000186D  0000              add [eax],al
0000186F  0000              add [eax],al
00001871  0000              add [eax],al
00001873  0000              add [eax],al
00001875  0000              add [eax],al
00001877  0000              add [eax],al
00001879  0000              add [eax],al
0000187B  0000              add [eax],al
0000187D  0000              add [eax],al
0000187F  0000              add [eax],al
00001881  0000              add [eax],al
00001883  0000              add [eax],al
00001885  0000              add [eax],al
00001887  0000              add [eax],al
00001889  0000              add [eax],al
0000188B  0000              add [eax],al
0000188D  0000              add [eax],al
0000188F  0000              add [eax],al
00001891  0000              add [eax],al
00001893  0000              add [eax],al
00001895  0000              add [eax],al
00001897  0000              add [eax],al
00001899  0000              add [eax],al
0000189B  0000              add [eax],al
0000189D  0000              add [eax],al
0000189F  0000              add [eax],al
000018A1  0000              add [eax],al
000018A3  0000              add [eax],al
000018A5  0000              add [eax],al
000018A7  0000              add [eax],al
000018A9  0000              add [eax],al
000018AB  0000              add [eax],al
000018AD  0000              add [eax],al
000018AF  0000              add [eax],al
000018B1  0000              add [eax],al
000018B3  0000              add [eax],al
000018B5  0000              add [eax],al
000018B7  0000              add [eax],al
000018B9  0000              add [eax],al
000018BB  0000              add [eax],al
000018BD  0000              add [eax],al
000018BF  0000              add [eax],al
000018C1  0000              add [eax],al
000018C3  0000              add [eax],al
000018C5  0000              add [eax],al
000018C7  0000              add [eax],al
000018C9  0000              add [eax],al
000018CB  0000              add [eax],al
000018CD  0000              add [eax],al
000018CF  0000              add [eax],al
000018D1  0000              add [eax],al
000018D3  0000              add [eax],al
000018D5  0000              add [eax],al
000018D7  0000              add [eax],al
000018D9  0000              add [eax],al
000018DB  0000              add [eax],al
000018DD  0000              add [eax],al
000018DF  0000              add [eax],al
000018E1  0000              add [eax],al
000018E3  0000              add [eax],al
000018E5  0000              add [eax],al
000018E7  0000              add [eax],al
000018E9  0000              add [eax],al
000018EB  0000              add [eax],al
000018ED  0000              add [eax],al
000018EF  0000              add [eax],al
000018F1  0000              add [eax],al
000018F3  0000              add [eax],al
000018F5  0000              add [eax],al
000018F7  0000              add [eax],al
000018F9  0000              add [eax],al
000018FB  0000              add [eax],al
000018FD  0000              add [eax],al
000018FF  0000              add [eax],al
00001901  0000              add [eax],al
00001903  0000              add [eax],al
00001905  0000              add [eax],al
00001907  0000              add [eax],al
00001909  0000              add [eax],al
0000190B  0000              add [eax],al
0000190D  0000              add [eax],al
0000190F  0000              add [eax],al
00001911  0000              add [eax],al
00001913  0000              add [eax],al
00001915  0000              add [eax],al
00001917  0000              add [eax],al
00001919  0000              add [eax],al
0000191B  0000              add [eax],al
0000191D  0000              add [eax],al
0000191F  0000              add [eax],al
00001921  0000              add [eax],al
00001923  0000              add [eax],al
00001925  0000              add [eax],al
00001927  0000              add [eax],al
00001929  0000              add [eax],al
0000192B  0000              add [eax],al
0000192D  0000              add [eax],al
0000192F  0000              add [eax],al
00001931  0000              add [eax],al
00001933  0000              add [eax],al
00001935  0000              add [eax],al
00001937  0000              add [eax],al
00001939  0000              add [eax],al
0000193B  0000              add [eax],al
0000193D  0000              add [eax],al
0000193F  0000              add [eax],al
00001941  0000              add [eax],al
00001943  0000              add [eax],al
00001945  0000              add [eax],al
00001947  0000              add [eax],al
00001949  0000              add [eax],al
0000194B  0000              add [eax],al
0000194D  0000              add [eax],al
0000194F  0000              add [eax],al
00001951  0000              add [eax],al
00001953  0000              add [eax],al
00001955  0000              add [eax],al
00001957  0000              add [eax],al
00001959  0000              add [eax],al
0000195B  0000              add [eax],al
0000195D  0000              add [eax],al
0000195F  0000              add [eax],al
00001961  0000              add [eax],al
00001963  0000              add [eax],al
00001965  0000              add [eax],al
00001967  0000              add [eax],al
00001969  0000              add [eax],al
0000196B  0000              add [eax],al
0000196D  0000              add [eax],al
0000196F  0000              add [eax],al
00001971  0000              add [eax],al
00001973  0000              add [eax],al
00001975  0000              add [eax],al
00001977  0000              add [eax],al
00001979  0000              add [eax],al
0000197B  0000              add [eax],al
0000197D  0000              add [eax],al
0000197F  0000              add [eax],al
00001981  0000              add [eax],al
00001983  0000              add [eax],al
00001985  0000              add [eax],al
00001987  0000              add [eax],al
00001989  0000              add [eax],al
0000198B  0000              add [eax],al
0000198D  0000              add [eax],al
0000198F  0000              add [eax],al
00001991  0000              add [eax],al
00001993  0000              add [eax],al
00001995  0000              add [eax],al
00001997  0000              add [eax],al
00001999  0000              add [eax],al
0000199B  0000              add [eax],al
0000199D  0000              add [eax],al
0000199F  0000              add [eax],al
000019A1  0000              add [eax],al
000019A3  0000              add [eax],al
000019A5  0000              add [eax],al
000019A7  0000              add [eax],al
000019A9  0000              add [eax],al
000019AB  0000              add [eax],al
000019AD  0000              add [eax],al
000019AF  0000              add [eax],al
000019B1  0000              add [eax],al
000019B3  0000              add [eax],al
000019B5  0000              add [eax],al
000019B7  0000              add [eax],al
000019B9  0000              add [eax],al
000019BB  0000              add [eax],al
000019BD  0000              add [eax],al
000019BF  0000              add [eax],al
000019C1  0000              add [eax],al
000019C3  0000              add [eax],al
000019C5  0000              add [eax],al
000019C7  0000              add [eax],al
000019C9  0000              add [eax],al
000019CB  0000              add [eax],al
000019CD  0000              add [eax],al
000019CF  0000              add [eax],al
000019D1  0000              add [eax],al
000019D3  0000              add [eax],al
000019D5  0000              add [eax],al
000019D7  0000              add [eax],al
000019D9  0000              add [eax],al
000019DB  0000              add [eax],al
000019DD  0000              add [eax],al
000019DF  0000              add [eax],al
000019E1  0000              add [eax],al
000019E3  0000              add [eax],al
000019E5  0000              add [eax],al
000019E7  0000              add [eax],al
000019E9  0000              add [eax],al
000019EB  0000              add [eax],al
000019ED  0000              add [eax],al
000019EF  0000              add [eax],al
000019F1  0000              add [eax],al
000019F3  0000              add [eax],al
000019F5  0000              add [eax],al
000019F7  0000              add [eax],al
000019F9  0000              add [eax],al
000019FB  0000              add [eax],al
000019FD  0000              add [eax],al
000019FF  0000              add [eax],al
00001A01  0000              add [eax],al
00001A03  0000              add [eax],al
00001A05  0000              add [eax],al
00001A07  0000              add [eax],al
00001A09  0000              add [eax],al
00001A0B  0000              add [eax],al
00001A0D  0000              add [eax],al
00001A0F  0000              add [eax],al
00001A11  0000              add [eax],al
00001A13  0000              add [eax],al
00001A15  0000              add [eax],al
00001A17  0000              add [eax],al
00001A19  0000              add [eax],al
00001A1B  0000              add [eax],al
00001A1D  0000              add [eax],al
00001A1F  0000              add [eax],al
00001A21  0000              add [eax],al
00001A23  0000              add [eax],al
00001A25  0000              add [eax],al
00001A27  0000              add [eax],al
00001A29  0000              add [eax],al
00001A2B  0000              add [eax],al
00001A2D  0000              add [eax],al
00001A2F  0000              add [eax],al
00001A31  0000              add [eax],al
00001A33  0000              add [eax],al
00001A35  0000              add [eax],al
00001A37  0000              add [eax],al
00001A39  0000              add [eax],al
00001A3B  0000              add [eax],al
00001A3D  0000              add [eax],al
00001A3F  0000              add [eax],al
00001A41  0000              add [eax],al
00001A43  0000              add [eax],al
00001A45  0000              add [eax],al
00001A47  0000              add [eax],al
00001A49  0000              add [eax],al
00001A4B  0000              add [eax],al
00001A4D  0000              add [eax],al
00001A4F  0000              add [eax],al
00001A51  0000              add [eax],al
00001A53  0000              add [eax],al
00001A55  0000              add [eax],al
00001A57  0000              add [eax],al
00001A59  0000              add [eax],al
00001A5B  0000              add [eax],al
00001A5D  0000              add [eax],al
00001A5F  0000              add [eax],al
00001A61  0000              add [eax],al
00001A63  0000              add [eax],al
00001A65  0000              add [eax],al
00001A67  0000              add [eax],al
00001A69  0000              add [eax],al
00001A6B  0000              add [eax],al
00001A6D  0000              add [eax],al
00001A6F  0000              add [eax],al
00001A71  0000              add [eax],al
00001A73  0000              add [eax],al
00001A75  0000              add [eax],al
00001A77  0000              add [eax],al
00001A79  0000              add [eax],al
00001A7B  0000              add [eax],al
00001A7D  0000              add [eax],al
00001A7F  0000              add [eax],al
00001A81  0000              add [eax],al
00001A83  0000              add [eax],al
00001A85  0000              add [eax],al
00001A87  0000              add [eax],al
00001A89  0000              add [eax],al
00001A8B  0000              add [eax],al
00001A8D  0000              add [eax],al
00001A8F  0000              add [eax],al
00001A91  0000              add [eax],al
00001A93  0000              add [eax],al
00001A95  0000              add [eax],al
00001A97  0000              add [eax],al
00001A99  0000              add [eax],al
00001A9B  0000              add [eax],al
00001A9D  0000              add [eax],al
00001A9F  0000              add [eax],al
00001AA1  0000              add [eax],al
00001AA3  0000              add [eax],al
00001AA5  0000              add [eax],al
00001AA7  0000              add [eax],al
00001AA9  0000              add [eax],al
00001AAB  0000              add [eax],al
00001AAD  0000              add [eax],al
00001AAF  0000              add [eax],al
00001AB1  0000              add [eax],al
00001AB3  0000              add [eax],al
00001AB5  0000              add [eax],al
00001AB7  0000              add [eax],al
00001AB9  0000              add [eax],al
00001ABB  0000              add [eax],al
00001ABD  0000              add [eax],al
00001ABF  0000              add [eax],al
00001AC1  0000              add [eax],al
00001AC3  0000              add [eax],al
00001AC5  0000              add [eax],al
00001AC7  0000              add [eax],al
00001AC9  0000              add [eax],al
00001ACB  0000              add [eax],al
00001ACD  0000              add [eax],al
00001ACF  0000              add [eax],al
00001AD1  0000              add [eax],al
00001AD3  0000              add [eax],al
00001AD5  0000              add [eax],al
00001AD7  0000              add [eax],al
00001AD9  0000              add [eax],al
00001ADB  0000              add [eax],al
00001ADD  0000              add [eax],al
00001ADF  0000              add [eax],al
00001AE1  0000              add [eax],al
00001AE3  0000              add [eax],al
00001AE5  0000              add [eax],al
00001AE7  0000              add [eax],al
00001AE9  0000              add [eax],al
00001AEB  0000              add [eax],al
00001AED  0000              add [eax],al
00001AEF  0000              add [eax],al
00001AF1  0000              add [eax],al
00001AF3  0000              add [eax],al
00001AF5  0000              add [eax],al
00001AF7  0000              add [eax],al
00001AF9  0000              add [eax],al
00001AFB  0000              add [eax],al
00001AFD  0000              add [eax],al
00001AFF  0000              add [eax],al
00001B01  0000              add [eax],al
00001B03  0000              add [eax],al
00001B05  0000              add [eax],al
00001B07  0000              add [eax],al
00001B09  0000              add [eax],al
00001B0B  0000              add [eax],al
00001B0D  0000              add [eax],al
00001B0F  0000              add [eax],al
00001B11  0000              add [eax],al
00001B13  0000              add [eax],al
00001B15  0000              add [eax],al
00001B17  0000              add [eax],al
00001B19  0000              add [eax],al
00001B1B  0000              add [eax],al
00001B1D  0000              add [eax],al
00001B1F  0000              add [eax],al
00001B21  0000              add [eax],al
00001B23  0000              add [eax],al
00001B25  0000              add [eax],al
00001B27  0000              add [eax],al
00001B29  0000              add [eax],al
00001B2B  0000              add [eax],al
00001B2D  0000              add [eax],al
00001B2F  0000              add [eax],al
00001B31  0000              add [eax],al
00001B33  0000              add [eax],al
00001B35  0000              add [eax],al
00001B37  0000              add [eax],al
00001B39  0000              add [eax],al
00001B3B  0000              add [eax],al
00001B3D  0000              add [eax],al
00001B3F  0000              add [eax],al
00001B41  0000              add [eax],al
00001B43  0000              add [eax],al
00001B45  0000              add [eax],al
00001B47  0000              add [eax],al
00001B49  0000              add [eax],al
00001B4B  0000              add [eax],al
00001B4D  0000              add [eax],al
00001B4F  0000              add [eax],al
00001B51  0000              add [eax],al
00001B53  0000              add [eax],al
00001B55  0000              add [eax],al
00001B57  0000              add [eax],al
00001B59  0000              add [eax],al
00001B5B  0000              add [eax],al
00001B5D  0000              add [eax],al
00001B5F  0000              add [eax],al
00001B61  0000              add [eax],al
00001B63  0000              add [eax],al
00001B65  0000              add [eax],al
00001B67  0000              add [eax],al
00001B69  0000              add [eax],al
00001B6B  0000              add [eax],al
00001B6D  0000              add [eax],al
00001B6F  0000              add [eax],al
00001B71  0000              add [eax],al
00001B73  0000              add [eax],al
00001B75  0000              add [eax],al
00001B77  0000              add [eax],al
00001B79  0000              add [eax],al
00001B7B  0000              add [eax],al
00001B7D  0000              add [eax],al
00001B7F  0000              add [eax],al
00001B81  0000              add [eax],al
00001B83  0000              add [eax],al
00001B85  0000              add [eax],al
00001B87  0000              add [eax],al
00001B89  0000              add [eax],al
00001B8B  0000              add [eax],al
00001B8D  0000              add [eax],al
00001B8F  0000              add [eax],al
00001B91  0000              add [eax],al
00001B93  0000              add [eax],al
00001B95  0000              add [eax],al
00001B97  0000              add [eax],al
00001B99  0000              add [eax],al
00001B9B  0000              add [eax],al
00001B9D  0000              add [eax],al
00001B9F  0000              add [eax],al
00001BA1  0000              add [eax],al
00001BA3  0000              add [eax],al
00001BA5  0000              add [eax],al
00001BA7  0000              add [eax],al
00001BA9  0000              add [eax],al
00001BAB  0000              add [eax],al
00001BAD  0000              add [eax],al
00001BAF  0000              add [eax],al
00001BB1  0000              add [eax],al
00001BB3  0000              add [eax],al
00001BB5  0000              add [eax],al
00001BB7  0000              add [eax],al
00001BB9  0000              add [eax],al
00001BBB  0000              add [eax],al
00001BBD  0000              add [eax],al
00001BBF  0000              add [eax],al
00001BC1  0000              add [eax],al
00001BC3  0000              add [eax],al
00001BC5  0000              add [eax],al
00001BC7  0000              add [eax],al
00001BC9  0000              add [eax],al
00001BCB  0000              add [eax],al
00001BCD  0000              add [eax],al
00001BCF  0000              add [eax],al
00001BD1  0000              add [eax],al
00001BD3  0000              add [eax],al
00001BD5  0000              add [eax],al
00001BD7  0000              add [eax],al
00001BD9  0000              add [eax],al
00001BDB  0000              add [eax],al
00001BDD  0000              add [eax],al
00001BDF  0000              add [eax],al
00001BE1  0000              add [eax],al
00001BE3  0000              add [eax],al
00001BE5  0000              add [eax],al
00001BE7  0000              add [eax],al
00001BE9  0000              add [eax],al
00001BEB  0000              add [eax],al
00001BED  0000              add [eax],al
00001BEF  0000              add [eax],al
00001BF1  0000              add [eax],al
00001BF3  0000              add [eax],al
00001BF5  0000              add [eax],al
00001BF7  0000              add [eax],al
00001BF9  0000              add [eax],al
00001BFB  0000              add [eax],al
00001BFD  0000              add [eax],al
00001BFF  0000              add [eax],al
00001C01  0000              add [eax],al
00001C03  0000              add [eax],al
00001C05  0000              add [eax],al
00001C07  0000              add [eax],al
00001C09  0000              add [eax],al
00001C0B  0000              add [eax],al
00001C0D  0000              add [eax],al
00001C0F  0000              add [eax],al
00001C11  0000              add [eax],al
00001C13  0000              add [eax],al
00001C15  0000              add [eax],al
00001C17  0000              add [eax],al
00001C19  0000              add [eax],al
00001C1B  0000              add [eax],al
00001C1D  0000              add [eax],al
00001C1F  0000              add [eax],al
00001C21  0000              add [eax],al
00001C23  0000              add [eax],al
00001C25  0000              add [eax],al
00001C27  0000              add [eax],al
00001C29  0000              add [eax],al
00001C2B  0000              add [eax],al
00001C2D  0000              add [eax],al
00001C2F  0000              add [eax],al
00001C31  0000              add [eax],al
00001C33  0000              add [eax],al
00001C35  0000              add [eax],al
00001C37  0000              add [eax],al
00001C39  0000              add [eax],al
00001C3B  0000              add [eax],al
00001C3D  0000              add [eax],al
00001C3F  0000              add [eax],al
00001C41  0000              add [eax],al
00001C43  0000              add [eax],al
00001C45  0000              add [eax],al
00001C47  0000              add [eax],al
00001C49  0000              add [eax],al
00001C4B  0000              add [eax],al
00001C4D  0000              add [eax],al
00001C4F  0000              add [eax],al
00001C51  0000              add [eax],al
00001C53  0000              add [eax],al
00001C55  0000              add [eax],al
00001C57  0000              add [eax],al
00001C59  0000              add [eax],al
00001C5B  0000              add [eax],al
00001C5D  0000              add [eax],al
00001C5F  0000              add [eax],al
00001C61  0000              add [eax],al
00001C63  0000              add [eax],al
00001C65  0000              add [eax],al
00001C67  0000              add [eax],al
00001C69  0000              add [eax],al
00001C6B  0000              add [eax],al
00001C6D  0000              add [eax],al
00001C6F  0000              add [eax],al
00001C71  0000              add [eax],al
00001C73  0000              add [eax],al
00001C75  0000              add [eax],al
00001C77  0000              add [eax],al
00001C79  0000              add [eax],al
00001C7B  0000              add [eax],al
00001C7D  0000              add [eax],al
00001C7F  0000              add [eax],al
00001C81  0000              add [eax],al
00001C83  0000              add [eax],al
00001C85  0000              add [eax],al
00001C87  0000              add [eax],al
00001C89  0000              add [eax],al
00001C8B  0000              add [eax],al
00001C8D  0000              add [eax],al
00001C8F  0000              add [eax],al
00001C91  0000              add [eax],al
00001C93  0000              add [eax],al
00001C95  0000              add [eax],al
00001C97  0000              add [eax],al
00001C99  0000              add [eax],al
00001C9B  0000              add [eax],al
00001C9D  0000              add [eax],al
00001C9F  0000              add [eax],al
00001CA1  0000              add [eax],al
00001CA3  0000              add [eax],al
00001CA5  0000              add [eax],al
00001CA7  0000              add [eax],al
00001CA9  0000              add [eax],al
00001CAB  0000              add [eax],al
00001CAD  0000              add [eax],al
00001CAF  0000              add [eax],al
00001CB1  0000              add [eax],al
00001CB3  0000              add [eax],al
00001CB5  0000              add [eax],al
00001CB7  0000              add [eax],al
00001CB9  0000              add [eax],al
00001CBB  0000              add [eax],al
00001CBD  0000              add [eax],al
00001CBF  0000              add [eax],al
00001CC1  0000              add [eax],al
00001CC3  0000              add [eax],al
00001CC5  0000              add [eax],al
00001CC7  0000              add [eax],al
00001CC9  0000              add [eax],al
00001CCB  0000              add [eax],al
00001CCD  0000              add [eax],al
00001CCF  0000              add [eax],al
00001CD1  0000              add [eax],al
00001CD3  0000              add [eax],al
00001CD5  0000              add [eax],al
00001CD7  0000              add [eax],al
00001CD9  0000              add [eax],al
00001CDB  0000              add [eax],al
00001CDD  0000              add [eax],al
00001CDF  0000              add [eax],al
00001CE1  0000              add [eax],al
00001CE3  0000              add [eax],al
00001CE5  0000              add [eax],al
00001CE7  0000              add [eax],al
00001CE9  0000              add [eax],al
00001CEB  0000              add [eax],al
00001CED  0000              add [eax],al
00001CEF  0000              add [eax],al
00001CF1  0000              add [eax],al
00001CF3  0000              add [eax],al
00001CF5  0000              add [eax],al
00001CF7  0000              add [eax],al
00001CF9  0000              add [eax],al
00001CFB  0000              add [eax],al
00001CFD  0000              add [eax],al
00001CFF  0000              add [eax],al
00001D01  0000              add [eax],al
00001D03  0000              add [eax],al
00001D05  0000              add [eax],al
00001D07  0000              add [eax],al
00001D09  0000              add [eax],al
00001D0B  0000              add [eax],al
00001D0D  0000              add [eax],al
00001D0F  0000              add [eax],al
00001D11  0000              add [eax],al
00001D13  0000              add [eax],al
00001D15  0000              add [eax],al
00001D17  0000              add [eax],al
00001D19  0000              add [eax],al
00001D1B  0000              add [eax],al
00001D1D  0000              add [eax],al
00001D1F  0000              add [eax],al
00001D21  0000              add [eax],al
00001D23  0000              add [eax],al
00001D25  0000              add [eax],al
00001D27  0000              add [eax],al
00001D29  0000              add [eax],al
00001D2B  0000              add [eax],al
00001D2D  0000              add [eax],al
00001D2F  0000              add [eax],al
00001D31  0000              add [eax],al
00001D33  0000              add [eax],al
00001D35  0000              add [eax],al
00001D37  0000              add [eax],al
00001D39  0000              add [eax],al
00001D3B  0000              add [eax],al
00001D3D  0000              add [eax],al
00001D3F  0000              add [eax],al
00001D41  0000              add [eax],al
00001D43  0000              add [eax],al
00001D45  0000              add [eax],al
00001D47  0000              add [eax],al
00001D49  0000              add [eax],al
00001D4B  0000              add [eax],al
00001D4D  0000              add [eax],al
00001D4F  0000              add [eax],al
00001D51  0000              add [eax],al
00001D53  0000              add [eax],al
00001D55  0000              add [eax],al
00001D57  0000              add [eax],al
00001D59  0000              add [eax],al
00001D5B  0000              add [eax],al
00001D5D  0000              add [eax],al
00001D5F  0000              add [eax],al
00001D61  0000              add [eax],al
00001D63  0000              add [eax],al
00001D65  0000              add [eax],al
00001D67  0000              add [eax],al
00001D69  0000              add [eax],al
00001D6B  0000              add [eax],al
00001D6D  0000              add [eax],al
00001D6F  0000              add [eax],al
00001D71  0000              add [eax],al
00001D73  0000              add [eax],al
00001D75  0000              add [eax],al
00001D77  0000              add [eax],al
00001D79  0000              add [eax],al
00001D7B  0000              add [eax],al
00001D7D  0000              add [eax],al
00001D7F  0000              add [eax],al
00001D81  0000              add [eax],al
00001D83  0000              add [eax],al
00001D85  0000              add [eax],al
00001D87  0000              add [eax],al
00001D89  0000              add [eax],al
00001D8B  0000              add [eax],al
00001D8D  0000              add [eax],al
00001D8F  0000              add [eax],al
00001D91  0000              add [eax],al
00001D93  0000              add [eax],al
00001D95  0000              add [eax],al
00001D97  0000              add [eax],al
00001D99  0000              add [eax],al
00001D9B  0000              add [eax],al
00001D9D  0000              add [eax],al
00001D9F  0000              add [eax],al
00001DA1  0000              add [eax],al
00001DA3  0000              add [eax],al
00001DA5  0000              add [eax],al
00001DA7  0000              add [eax],al
00001DA9  0000              add [eax],al
00001DAB  0000              add [eax],al
00001DAD  0000              add [eax],al
00001DAF  0000              add [eax],al
00001DB1  0000              add [eax],al
00001DB3  0000              add [eax],al
00001DB5  0000              add [eax],al
00001DB7  0000              add [eax],al
00001DB9  0000              add [eax],al
00001DBB  0000              add [eax],al
00001DBD  0000              add [eax],al
00001DBF  0000              add [eax],al
00001DC1  0000              add [eax],al
00001DC3  0000              add [eax],al
00001DC5  0000              add [eax],al
00001DC7  0000              add [eax],al
00001DC9  0000              add [eax],al
00001DCB  0000              add [eax],al
00001DCD  0000              add [eax],al
00001DCF  0000              add [eax],al
00001DD1  0000              add [eax],al
00001DD3  0000              add [eax],al
00001DD5  0000              add [eax],al
00001DD7  0000              add [eax],al
00001DD9  0000              add [eax],al
00001DDB  0000              add [eax],al
00001DDD  0000              add [eax],al
00001DDF  0000              add [eax],al
00001DE1  0000              add [eax],al
00001DE3  0000              add [eax],al
00001DE5  0000              add [eax],al
00001DE7  0000              add [eax],al
00001DE9  0000              add [eax],al
00001DEB  0000              add [eax],al
00001DED  0000              add [eax],al
00001DEF  0000              add [eax],al
00001DF1  0000              add [eax],al
00001DF3  0000              add [eax],al
00001DF5  0000              add [eax],al
00001DF7  0000              add [eax],al
00001DF9  0000              add [eax],al
00001DFB  0000              add [eax],al
00001DFD  0000              add [eax],al
00001DFF  0000              add [eax],al
00001E01  0000              add [eax],al
00001E03  0000              add [eax],al
00001E05  0000              add [eax],al
00001E07  0000              add [eax],al
00001E09  0000              add [eax],al
00001E0B  0000              add [eax],al
00001E0D  0000              add [eax],al
00001E0F  0000              add [eax],al
00001E11  0000              add [eax],al
00001E13  0000              add [eax],al
00001E15  0000              add [eax],al
00001E17  0000              add [eax],al
00001E19  0000              add [eax],al
00001E1B  0000              add [eax],al
00001E1D  0000              add [eax],al
00001E1F  0000              add [eax],al
00001E21  0000              add [eax],al
00001E23  0000              add [eax],al
00001E25  0000              add [eax],al
00001E27  0000              add [eax],al
00001E29  0000              add [eax],al
00001E2B  0000              add [eax],al
00001E2D  0000              add [eax],al
00001E2F  0000              add [eax],al
00001E31  0000              add [eax],al
00001E33  0000              add [eax],al
00001E35  0000              add [eax],al
00001E37  0000              add [eax],al
00001E39  0000              add [eax],al
00001E3B  0000              add [eax],al
00001E3D  0000              add [eax],al
00001E3F  0000              add [eax],al
00001E41  0000              add [eax],al
00001E43  0000              add [eax],al
00001E45  0000              add [eax],al
00001E47  0000              add [eax],al
00001E49  0000              add [eax],al
00001E4B  0000              add [eax],al
00001E4D  0000              add [eax],al
00001E4F  0000              add [eax],al
00001E51  0000              add [eax],al
00001E53  0000              add [eax],al
00001E55  0000              add [eax],al
00001E57  0000              add [eax],al
00001E59  0000              add [eax],al
00001E5B  0000              add [eax],al
00001E5D  0000              add [eax],al
00001E5F  0000              add [eax],al
00001E61  0000              add [eax],al
00001E63  0000              add [eax],al
00001E65  0000              add [eax],al
00001E67  0000              add [eax],al
00001E69  0000              add [eax],al
00001E6B  0000              add [eax],al
00001E6D  0000              add [eax],al
00001E6F  0000              add [eax],al
00001E71  0000              add [eax],al
00001E73  0000              add [eax],al
00001E75  0000              add [eax],al
00001E77  0000              add [eax],al
00001E79  0000              add [eax],al
00001E7B  0000              add [eax],al
00001E7D  0000              add [eax],al
00001E7F  0000              add [eax],al
00001E81  0000              add [eax],al
00001E83  0000              add [eax],al
00001E85  0000              add [eax],al
00001E87  0000              add [eax],al
00001E89  0000              add [eax],al
00001E8B  0000              add [eax],al
00001E8D  0000              add [eax],al
00001E8F  0000              add [eax],al
00001E91  0000              add [eax],al
00001E93  0000              add [eax],al
00001E95  0000              add [eax],al
00001E97  0000              add [eax],al
00001E99  0000              add [eax],al
00001E9B  0000              add [eax],al
00001E9D  0000              add [eax],al
00001E9F  0000              add [eax],al
00001EA1  0000              add [eax],al
00001EA3  0000              add [eax],al
00001EA5  0000              add [eax],al
00001EA7  0000              add [eax],al
00001EA9  0000              add [eax],al
00001EAB  0000              add [eax],al
00001EAD  0000              add [eax],al
00001EAF  0000              add [eax],al
00001EB1  0000              add [eax],al
00001EB3  0000              add [eax],al
00001EB5  0000              add [eax],al
00001EB7  0000              add [eax],al
00001EB9  0000              add [eax],al
00001EBB  0000              add [eax],al
00001EBD  0000              add [eax],al
00001EBF  0000              add [eax],al
00001EC1  0000              add [eax],al
00001EC3  0000              add [eax],al
00001EC5  0000              add [eax],al
00001EC7  0000              add [eax],al
00001EC9  0000              add [eax],al
00001ECB  0000              add [eax],al
00001ECD  0000              add [eax],al
00001ECF  0000              add [eax],al
00001ED1  0000              add [eax],al
00001ED3  0000              add [eax],al
00001ED5  0000              add [eax],al
00001ED7  0000              add [eax],al
00001ED9  0000              add [eax],al
00001EDB  0000              add [eax],al
00001EDD  0000              add [eax],al
00001EDF  0000              add [eax],al
00001EE1  0000              add [eax],al
00001EE3  0000              add [eax],al
00001EE5  0000              add [eax],al
00001EE7  0000              add [eax],al
00001EE9  0000              add [eax],al
00001EEB  0000              add [eax],al
00001EED  0000              add [eax],al
00001EEF  0000              add [eax],al
00001EF1  0000              add [eax],al
00001EF3  0000              add [eax],al
00001EF5  0000              add [eax],al
00001EF7  0000              add [eax],al
00001EF9  0000              add [eax],al
00001EFB  0000              add [eax],al
00001EFD  0000              add [eax],al
00001EFF  0000              add [eax],al
00001F01  0000              add [eax],al
00001F03  0000              add [eax],al
00001F05  0000              add [eax],al
00001F07  0000              add [eax],al
00001F09  0000              add [eax],al
00001F0B  0000              add [eax],al
00001F0D  0000              add [eax],al
00001F0F  0000              add [eax],al
00001F11  0000              add [eax],al
00001F13  0000              add [eax],al
00001F15  0000              add [eax],al
00001F17  0000              add [eax],al
00001F19  0000              add [eax],al
00001F1B  0000              add [eax],al
00001F1D  0000              add [eax],al
00001F1F  0000              add [eax],al
00001F21  0000              add [eax],al
00001F23  0000              add [eax],al
00001F25  0000              add [eax],al
00001F27  0000              add [eax],al
00001F29  0000              add [eax],al
00001F2B  0000              add [eax],al
00001F2D  0000              add [eax],al
00001F2F  0000              add [eax],al
00001F31  0000              add [eax],al
00001F33  0000              add [eax],al
00001F35  0000              add [eax],al
00001F37  0000              add [eax],al
00001F39  0000              add [eax],al
00001F3B  0000              add [eax],al
00001F3D  0000              add [eax],al
00001F3F  0000              add [eax],al
00001F41  0000              add [eax],al
00001F43  0000              add [eax],al
00001F45  0000              add [eax],al
00001F47  0000              add [eax],al
00001F49  0000              add [eax],al
00001F4B  0000              add [eax],al
00001F4D  0000              add [eax],al
00001F4F  0000              add [eax],al
00001F51  0000              add [eax],al
00001F53  0000              add [eax],al
00001F55  0000              add [eax],al
00001F57  0000              add [eax],al
00001F59  0000              add [eax],al
00001F5B  0000              add [eax],al
00001F5D  0000              add [eax],al
00001F5F  0000              add [eax],al
00001F61  0000              add [eax],al
00001F63  0000              add [eax],al
00001F65  0000              add [eax],al
00001F67  0000              add [eax],al
00001F69  0000              add [eax],al
00001F6B  0000              add [eax],al
00001F6D  0000              add [eax],al
00001F6F  0000              add [eax],al
00001F71  0000              add [eax],al
00001F73  0000              add [eax],al
00001F75  0000              add [eax],al
00001F77  0000              add [eax],al
00001F79  0000              add [eax],al
00001F7B  0000              add [eax],al
00001F7D  0000              add [eax],al
00001F7F  0000              add [eax],al
00001F81  0000              add [eax],al
00001F83  0000              add [eax],al
00001F85  0000              add [eax],al
00001F87  0000              add [eax],al
00001F89  0000              add [eax],al
00001F8B  0000              add [eax],al
00001F8D  0000              add [eax],al
00001F8F  0000              add [eax],al
00001F91  0000              add [eax],al
00001F93  0000              add [eax],al
00001F95  0000              add [eax],al
00001F97  0000              add [eax],al
00001F99  0000              add [eax],al
00001F9B  0000              add [eax],al
00001F9D  0000              add [eax],al
00001F9F  0000              add [eax],al
00001FA1  0000              add [eax],al
00001FA3  0000              add [eax],al
00001FA5  0000              add [eax],al
00001FA7  0000              add [eax],al
00001FA9  0000              add [eax],al
00001FAB  0000              add [eax],al
00001FAD  0000              add [eax],al
00001FAF  0000              add [eax],al
00001FB1  0000              add [eax],al
00001FB3  0000              add [eax],al
00001FB5  0000              add [eax],al
00001FB7  0000              add [eax],al
00001FB9  0000              add [eax],al
00001FBB  0000              add [eax],al
00001FBD  0000              add [eax],al
00001FBF  0000              add [eax],al
00001FC1  0000              add [eax],al
00001FC3  0000              add [eax],al
00001FC5  0000              add [eax],al
00001FC7  0000              add [eax],al
00001FC9  0000              add [eax],al
00001FCB  0000              add [eax],al
00001FCD  0000              add [eax],al
00001FCF  0000              add [eax],al
00001FD1  0000              add [eax],al
00001FD3  0000              add [eax],al
00001FD5  0000              add [eax],al
00001FD7  0000              add [eax],al
00001FD9  0000              add [eax],al
00001FDB  0000              add [eax],al
00001FDD  0000              add [eax],al
00001FDF  0000              add [eax],al
00001FE1  0000              add [eax],al
00001FE3  0000              add [eax],al
00001FE5  0000              add [eax],al
00001FE7  0000              add [eax],al
00001FE9  0000              add [eax],al
00001FEB  0000              add [eax],al
00001FED  0000              add [eax],al
00001FEF  0000              add [eax],al
00001FF1  0000              add [eax],al
00001FF3  0000              add [eax],al
00001FF5  0000              add [eax],al
00001FF7  0000              add [eax],al
00001FF9  0000              add [eax],al
00001FFB  0000              add [eax],al
00001FFD  0000              add [eax],al
00001FFF  00C0              add al,al
00002001  0000              add [eax],al
00002003  0020              add [eax],ah
00002005  0000              add [eax],al
00002007  00F0              add al,dh
00002009  0000              add [eax],al
0000200B  0021              add [ecx],ah
0000200D  0000              add [eax],al
0000200F  0020              add [eax],ah
00002011  0100              add [eax],eax
00002013  0022              add [edx],ah
00002015  0000              add [eax],al
00002017  005001            add [eax+0x1],dl
0000201A  0000              add [eax],al
0000201C  2300              and eax,[eax]
0000201E  0000              add [eax],al
00002020  800100            add byte [ecx],0x0
00002023  002400            add [eax+eax],ah
00002026  0000              add [eax],al
00002028  B001              mov al,0x1
0000202A  0000              add [eax],al
0000202C  25000000E0        and eax,0xe0000000
00002031  0100              add [eax],eax
00002033  0026              add [esi],ah
00002035  0000              add [eax],al
00002037  0010              add [eax],dl
00002039  0200              add al,[eax]
0000203B  0027              add [edi],ah
0000203D  0000              add [eax],al
0000203F  004002            add [eax+0x2],al
00002042  0000              add [eax],al
00002044  2800              sub [eax],al
00002046  0000              add [eax],al
00002048  50                push eax
00002049  0200              add al,[eax]
0000204B  0029              add [ecx],ch
0000204D  0000              add [eax],al
0000204F  006002            add [eax+0x2],ah
00002052  0000              add [eax],al
00002054  2A00              sub al,[eax]
00002056  0000              add [eax],al
00002058  7002              jo 0x205c
0000205A  0000              add [eax],al
0000205C  2B00              sub eax,[eax]
0000205E  0000              add [eax],al
00002060  800200            add byte [edx],0x0
00002063  002C00            add [eax+eax],ch
00002066  0000              add [eax],al
00002068  90                nop
00002069  0200              add al,[eax]
0000206B  002D000000A0      add [dword 0xa0000000],ch
00002071  0200              add al,[eax]
00002073  002E              add [esi],ch
00002075  0000              add [eax],al
00002077  00B00200002F      add [eax+0x2f000002],dh
0000207D  0000              add [eax],al
0000207F  0000              add [eax],al
00002081  0000              add [eax],al
00002083  0000              add [eax],al
00002085  0000              add [eax],al
00002087  0000              add [eax],al
00002089  0000              add [eax],al
0000208B  0000              add [eax],al
0000208D  0000              add [eax],al
0000208F  0000              add [eax],al
00002091  0000              add [eax],al
00002093  0000              add [eax],al
00002095  0000              add [eax],al
00002097  0000              add [eax],al
00002099  0000              add [eax],al
0000209B  0000              add [eax],al
0000209D  0000              add [eax],al
0000209F  00BF02000000      add [edi+0x2],bh
000020A5  0000              add [eax],al
000020A7  00C5              add ch,al
000020A9  0200              add al,[eax]
000020AB  0001              add [ecx],al
000020AD  0000              add [eax],al
000020AF  00CB              add bl,cl
000020B1  0200              add al,[eax]
000020B3  0002              add [edx],al
000020B5  0000              add [eax],al
000020B7  00D1              add cl,dl
000020B9  0200              add al,[eax]
000020BB  0003              add [ebx],al
000020BD  0003              add [ebx],al
000020BF  00D7              add bh,dl
000020C1  0200              add al,[eax]
000020C3  000400            add [eax+eax],al
000020C6  0300              add eax,[eax]
000020C8  DD02              fld qword [edx]
000020CA  0000              add [eax],al
000020CC  05000000E3        add eax,0xe3000000
000020D1  0200              add al,[eax]
000020D3  0006              add [esi],al
000020D5  0000              add [eax],al
000020D7  00E9              add cl,ch
000020D9  0200              add al,[eax]
000020DB  0007              add [edi],al
000020DD  0000              add [eax],al
000020DF  00EF              add bh,ch
000020E1  0200              add al,[eax]
000020E3  0008              add [eax],cl
000020E5  0000              add [eax],al
000020E7  00F3              add bl,dh
000020E9  0200              add al,[eax]
000020EB  0009              add [ecx],cl
000020ED  0000              add [eax],al
000020EF  00F9              add cl,bh
000020F1  0200              add al,[eax]
000020F3  000A              add [edx],cl
000020F5  0000              add [eax],al
000020F7  00FD              add ch,bh
000020F9  0200              add al,[eax]
000020FB  000B              add [ebx],cl
000020FD  0000              add [eax],al
000020FF  0001              add [ecx],al
00002101  0300              add eax,[eax]
00002103  000C00            add [eax+eax],cl
00002106  0000              add [eax],al
00002108  050300000D        add eax,0xd000003
0000210D  0000              add [eax],al
0000210F  0009              add [ecx],cl
00002111  0300              add eax,[eax]
00002113  000E              add [esi],cl
00002115  0000              add [eax],al
00002117  000D03000010      add [dword 0x10000003],cl
0000211D  0000              add [eax],al
0000211F  0013              add [ebx],dl
00002121  0300              add eax,[eax]
00002123  0011              add [ecx],dl
00002125  0000              add [eax],al
00002127  0017              add [edi],dl
00002129  0300              add eax,[eax]
0000212B  0012              add [edx],dl
0000212D  0000              add [eax],al
0000212F  001D03000013      add [dword 0x13000003],bl
00002135  0000              add [eax],al
00002137  0000              add [eax],al
00002139  0000              add [eax],al
0000213B  0000              add [eax],al
0000213D  0000              add [eax],al
0000213F  00B4100000C510    add [eax+edx+0x10c50000],dh
00002146  0000              add [eax],al
00002148  D210              rcl byte [eax],cl
0000214A  0000              add [eax],al
0000214C  E510              in eax,0x10
0000214E  0000              add [eax],al
00002150  F4                hlt
00002151  1000              adc [eax],al
00002153  0001              add [ecx],al
00002155  1100              adc [eax],eax
00002157  001C11            add [ecx+edx],bl
0000215A  0000              add [eax],al
0000215C  44                inc esp
0000215D  1100              adc [eax],eax
0000215F  007311            add [ebx+0x11],dh
00002162  0000              add [eax],al
00002164  8411              test [ecx],dl
00002166  0000              add [eax],al
00002168  AF                scasd
00002169  1100              adc [eax],eax
0000216B  00BF110000D7      add [edi-0x28ffffef],bh
00002171  1100              adc [eax],eax
00002173  00EF              add bh,ch
00002175  1100              adc [eax],eax
00002177  0006              add [esi],al
00002179  1200              adc al,[eax]
0000217B  0018              add [eax],bl
0000217D  1200              adc al,[eax]
0000217F  003C12            add [edx+edx],bh
00002182  0000              add [eax],al
00002184  6A12              push byte +0x12
00002186  0000              add [eax],al
00002188  7E12              jng 0x219c
0000218A  0000              add [eax],al
0000218C  90                nop
0000218D  1200              adc al,[eax]
0000218F  0000              add [eax],al
00002191  0000              add [eax],al
00002193  0000              add [eax],al
00002195  0000              add [eax],al
00002197  0000              add [eax],al
00002199  0000              add [eax],al
0000219B  0000              add [eax],al
0000219D  0000              add [eax],al
0000219F  00FF              add bh,bh
000021A1  FF                db 0xff
000021A2  FF                db 0xff
000021A3  FF00              inc dword [eax]
000021A5  0000              add [eax],al
000021A7  0000              add [eax],al
000021A9  0000              add [eax],al
000021AB  0000              add [eax],al
000021AD  0000              add [eax],al
000021AF  0000              add [eax],al
000021B1  0000              add [eax],al
000021B3  0000              add [eax],al
000021B5  0000              add [eax],al
000021B7  0000              add [eax],al
000021B9  0000              add [eax],al
000021BB  0000              add [eax],al
000021BD  0000              add [eax],al
000021BF  009E0F000000      add [esi+0xf],bl
000021C5  800000            add byte [eax],0x0
000021C8  0300              add eax,[eax]
000021CA  0000              add [eax],al
000021CC  EF                out dx,eax
000021CD  0F0000            sldt [eax]
000021D0  008000000300      add [eax+0x30000],al
000021D6  0000              add [eax],al
000021D8  40                inc eax
000021D9  1000              adc [eax],al
000021DB  0000              add [eax],al
000021DD  800000            add byte [eax],0x0
000021E0  0300              add eax,[eax]
000021E2  0000              add [eax],al
000021E4  47                inc edi
000021E5  43                inc ebx
000021E6  43                inc ebx
000021E7  3A20              cmp ah,[eax]
000021E9  28474E            sub [edi+0x4e],al
000021EC  55                push ebp
000021ED  2920              sub [eax],esp
000021EF  382E              cmp [esi],ch
000021F1  322E              xor ch,[esi]
000021F3  3000              xor [eax],al
000021F5  002E              add [esi],ch
000021F7  7368              jnc 0x2261
000021F9  7374              jnc 0x226f
000021FB  7274              jc 0x2271
000021FD  61                popa
000021FE  6200              bound eax,[eax]
00002200  2E7465            cs jz 0x2268
00002203  7874              js 0x2279
00002205  002E              add [esi],ch
00002207  726F              jc 0x2278
00002209  6461              fs popa
0000220B  7461              jz 0x226e
0000220D  002E              add [esi],ch
0000220F  65685F667261      gs push dword 0x6172665f
00002215  6D                insd
00002216  65002E            add [gs:esi],ch
00002219  6461              fs popa
0000221B  7461              jz 0x227e
0000221D  002E              add [esi],ch
0000221F  627373            bound esi,[ebx+0x73]
00002222  002E              add [esi],ch
00002224  636F6D            arpl [edi+0x6d],bp
00002227  6D                insd
00002228  656E              gs outsb
0000222A  7400              jz 0x222c
0000222C  0000              add [eax],al
0000222E  0000              add [eax],al
00002230  0000              add [eax],al
00002232  0000              add [eax],al
00002234  0000              add [eax],al
00002236  0000              add [eax],al
00002238  0000              add [eax],al
0000223A  0000              add [eax],al
0000223C  0000              add [eax],al
0000223E  0000              add [eax],al
00002240  0000              add [eax],al
00002242  0000              add [eax],al
00002244  0000              add [eax],al
00002246  0000              add [eax],al
00002248  0000              add [eax],al
0000224A  0000              add [eax],al
0000224C  0000              add [eax],al
0000224E  0000              add [eax],al
00002250  0000              add [eax],al
00002252  0000              add [eax],al
00002254  0B00              or eax,[eax]
00002256  0000              add [eax],al
00002258  0100              add [eax],eax
0000225A  0000              add [eax],al
0000225C  06                push es
0000225D  0000              add [eax],al
0000225F  0000              add [eax],al
00002261  0000              add [eax],al
00002263  0000              add [eax],al
00002265  1000              adc [eax],al
00002267  009110000000      add [ecx+0x10],dl
0000226D  0000              add [eax],al
0000226F  0000              add [eax],al
00002271  0000              add [eax],al
00002273  0010              add [eax],dl
00002275  0000              add [eax],al
00002277  0000              add [eax],al
00002279  0000              add [eax],al
0000227B  0011              add [ecx],dl
0000227D  0000              add [eax],al
0000227F  0001              add [ecx],al
00002281  0000              add [eax],al
00002283  0002              add [edx],al
00002285  0000              add [eax],al
00002287  00941000009420    add [eax+edx+0x20940000],dl
0000228E  0000              add [eax],al
00002290  7A02              jpe 0x2294
00002292  0000              add [eax],al
00002294  0000              add [eax],al
00002296  0000              add [eax],al
00002298  0000              add [eax],al
0000229A  0000              add [eax],al
0000229C  0400              add al,0x0
0000229E  0000              add [eax],al
000022A0  0000              add [eax],al
000022A2  0000              add [eax],al
000022A4  1900              sbb [eax],eax
000022A6  0000              add [eax],al
000022A8  0100              add [eax],eax
000022AA  0000              add [eax],al
000022AC  0200              add al,[eax]
000022AE  0000              add [eax],al
000022B0  1013              adc [ebx],dl
000022B2  0000              add [eax],al
000022B4  1023              adc [ebx],ah
000022B6  0000              add [eax],al
000022B8  D00400            rol byte [eax+eax],1
000022BB  0000              add [eax],al
000022BD  0000              add [eax],al
000022BF  0000              add [eax],al
000022C1  0000              add [eax],al
000022C3  000400            add [eax+eax],al
000022C6  0000              add [eax],al
000022C8  0000              add [eax],al
000022CA  0000              add [eax],al
000022CC  2300              and eax,[eax]
000022CE  0000              add [eax],al
000022D0  0100              add [eax],eax
000022D2  0000              add [eax],al
000022D4  0300              add eax,[eax]
000022D6  0000              add [eax],al
000022D8  0020              add [eax],ah
000022DA  0000              add [eax],al
000022DC  0030              add [eax],dh
000022DE  0000              add [eax],al
000022E0  E401              in al,0x1
000022E2  0000              add [eax],al
000022E4  0000              add [eax],al
000022E6  0000              add [eax],al
000022E8  0000              add [eax],al
000022EA  0000              add [eax],al
000022EC  2000              and [eax],al
000022EE  0000              add [eax],al
000022F0  0000              add [eax],al
000022F2  0000              add [eax],al
000022F4  2900              sub [eax],eax
000022F6  0000              add [eax],al
000022F8  0800              or [eax],al
000022FA  0000              add [eax],al
000022FC  0300              add eax,[eax]
000022FE  0000              add [eax],al
00002300  0022              add [edx],ah
00002302  0000              add [eax],al
00002304  E431              in al,0x31
00002306  0000              add [eax],al
00002308  D0ED              shr ch,1
0000230A  0100              add [eax],eax
0000230C  0000              add [eax],al
0000230E  0000              add [eax],al
00002310  0000              add [eax],al
00002312  0000              add [eax],al
00002314  2000              and [eax],al
00002316  0000              add [eax],al
00002318  0000              add [eax],al
0000231A  0000              add [eax],al
0000231C  2E0000            add [cs:eax],al
0000231F  0001              add [ecx],al
00002321  0000              add [eax],al
00002323  0030              add [eax],dh
00002325  0000              add [eax],al
00002327  0000              add [eax],al
00002329  0000              add [eax],al
0000232B  00E4              add ah,ah
0000232D  3100              xor [eax],eax
0000232F  0011              add [ecx],dl
00002331  0000              add [eax],al
00002333  0000              add [eax],al
00002335  0000              add [eax],al
00002337  0000              add [eax],al
00002339  0000              add [eax],al
0000233B  0001              add [ecx],al
0000233D  0000              add [eax],al
0000233F  0001              add [ecx],al
00002341  0000              add [eax],al
00002343  0001              add [ecx],al
00002345  0000              add [eax],al
00002347  0003              add [ebx],al
00002349  0000              add [eax],al
0000234B  0000              add [eax],al
0000234D  0000              add [eax],al
0000234F  0000              add [eax],al
00002351  0000              add [eax],al
00002353  00F5              add ch,dh
00002355  3100              xor [eax],eax
00002357  0037              add [edi],dh
00002359  0000              add [eax],al
0000235B  0000              add [eax],al
0000235D  0000              add [eax],al
0000235F  0000              add [eax],al
00002361  0000              add [eax],al
00002363  0001              add [ecx],al
00002365  0000              add [eax],al
00002367  0000              add [eax],al
00002369  0000              add [eax],al
0000236B  00                db 0x00